
1_GPIO.elf:     file format elf32-littlearm

Sections:
Idx Name          Size      VMA       LMA       File off  Algn
  0 .isr_vector   0000024c  08000000  08000000  00010000  2**0
                  CONTENTS, ALLOC, LOAD, READONLY, DATA
  1 .text         00002884  0800024c  0800024c  0001024c  2**2
                  CONTENTS, ALLOC, LOAD, READONLY, CODE
  2 .rodata       00000090  08002ad0  08002ad0  00012ad0  2**2
                  CONTENTS, ALLOC, LOAD, READONLY, DATA
  3 .ARM.extab    00000000  08002b60  08002b60  00020054  2**0
                  CONTENTS
  4 .ARM          00000000  08002b60  08002b60  00020054  2**0
                  CONTENTS
  5 .preinit_array 00000000  08002b60  08002b60  00020054  2**0
                  CONTENTS, ALLOC, LOAD, DATA
  6 .init_array   00000004  08002b60  08002b60  00012b60  2**2
                  CONTENTS, ALLOC, LOAD, DATA
  7 .fini_array   00000004  08002b64  08002b64  00012b64  2**2
                  CONTENTS, ALLOC, LOAD, DATA
  8 .data         00000054  20000000  08002b68  00020000  2**2
                  CONTENTS, ALLOC, LOAD, DATA
  9 .bss          0000016c  20000054  08002bbc  00020054  2**2
                  ALLOC
 10 ._user_heap_stack 00000600  200001c0  08002bbc  000201c0  2**0
                  ALLOC
 11 .ARM.attributes 00000036  00000000  00000000  00020054  2**0
                  CONTENTS, READONLY
 12 .comment      00000043  00000000  00000000  0002008a  2**0
                  CONTENTS, READONLY
 13 .debug_info   00005e5f  00000000  00000000  000200cd  2**0
                  CONTENTS, READONLY, DEBUGGING, OCTETS
 14 .debug_abbrev 00000b15  00000000  00000000  00025f2c  2**0
                  CONTENTS, READONLY, DEBUGGING, OCTETS
 15 .debug_aranges 000005c8  00000000  00000000  00026a48  2**3
                  CONTENTS, READONLY, DEBUGGING, OCTETS
 16 .debug_rnglists 00000444  00000000  00000000  00027010  2**0
                  CONTENTS, READONLY, DEBUGGING, OCTETS
 17 .debug_macro  00027883  00000000  00000000  00027454  2**0
                  CONTENTS, READONLY, DEBUGGING, OCTETS
 18 .debug_line   00004dd8  00000000  00000000  0004ecd7  2**0
                  CONTENTS, READONLY, DEBUGGING, OCTETS
 19 .debug_str    000ea5ad  00000000  00000000  00053aaf  2**0
                  CONTENTS, READONLY, DEBUGGING, OCTETS
 20 .debug_frame  00001d5c  00000000  00000000  0013e05c  2**2
                  CONTENTS, READONLY, DEBUGGING, OCTETS
 21 .debug_line_str 00000053  00000000  00000000  0013fdb8  2**0
                  CONTENTS, READONLY, DEBUGGING, OCTETS

Disassembly of section .text:

0800024c <__do_global_dtors_aux>:
 800024c:	b510      	push	{r4, lr}
 800024e:	4c05      	ldr	r4, [pc, #20]	; (8000264 <__do_global_dtors_aux+0x18>)
 8000250:	7823      	ldrb	r3, [r4, #0]
 8000252:	b933      	cbnz	r3, 8000262 <__do_global_dtors_aux+0x16>
 8000254:	4b04      	ldr	r3, [pc, #16]	; (8000268 <__do_global_dtors_aux+0x1c>)
 8000256:	b113      	cbz	r3, 800025e <__do_global_dtors_aux+0x12>
 8000258:	4804      	ldr	r0, [pc, #16]	; (800026c <__do_global_dtors_aux+0x20>)
 800025a:	f3af 8000 	nop.w
 800025e:	2301      	movs	r3, #1
 8000260:	7023      	strb	r3, [r4, #0]
 8000262:	bd10      	pop	{r4, pc}
 8000264:	20000054 	.word	0x20000054
 8000268:	00000000 	.word	0x00000000
 800026c:	08002ab8 	.word	0x08002ab8

08000270 <frame_dummy>:
 8000270:	b508      	push	{r3, lr}
 8000272:	4b03      	ldr	r3, [pc, #12]	; (8000280 <frame_dummy+0x10>)
 8000274:	b11b      	cbz	r3, 800027e <frame_dummy+0xe>
 8000276:	4903      	ldr	r1, [pc, #12]	; (8000284 <frame_dummy+0x14>)
 8000278:	4803      	ldr	r0, [pc, #12]	; (8000288 <frame_dummy+0x18>)
 800027a:	f3af 8000 	nop.w
 800027e:	bd08      	pop	{r3, pc}
 8000280:	00000000 	.word	0x00000000
 8000284:	20000058 	.word	0x20000058
 8000288:	08002ab8 	.word	0x08002ab8

0800028c <LL_AHB2_GRP1_EnableClock>:
  *
  *  (*)  : Not available for all stm32h5xxxx family lines.
  * @retval None
  */
__STATIC_INLINE void LL_AHB2_GRP1_EnableClock(uint32_t Periphs)
{
 800028c:	b480      	push	{r7}
 800028e:	b085      	sub	sp, #20
 8000290:	af00      	add	r7, sp, #0
 8000292:	6078      	str	r0, [r7, #4]
  __IO uint32_t tmpreg;
  SET_BIT(RCC->AHB2ENR, Periphs);
 8000294:	4b0a      	ldr	r3, [pc, #40]	; (80002c0 <LL_AHB2_GRP1_EnableClock+0x34>)
 8000296:	f8d3 208c 	ldr.w	r2, [r3, #140]	; 0x8c
 800029a:	4909      	ldr	r1, [pc, #36]	; (80002c0 <LL_AHB2_GRP1_EnableClock+0x34>)
 800029c:	687b      	ldr	r3, [r7, #4]
 800029e:	4313      	orrs	r3, r2
 80002a0:	f8c1 308c 	str.w	r3, [r1, #140]	; 0x8c
  /* Delay after an RCC peripheral clock enabling */
  tmpreg = READ_BIT(RCC->AHB2ENR, Periphs);
 80002a4:	4b06      	ldr	r3, [pc, #24]	; (80002c0 <LL_AHB2_GRP1_EnableClock+0x34>)
 80002a6:	f8d3 208c 	ldr.w	r2, [r3, #140]	; 0x8c
 80002aa:	687b      	ldr	r3, [r7, #4]
 80002ac:	4013      	ands	r3, r2
 80002ae:	60fb      	str	r3, [r7, #12]
  (void)tmpreg;
 80002b0:	68fb      	ldr	r3, [r7, #12]
}
 80002b2:	bf00      	nop
 80002b4:	3714      	adds	r7, #20
 80002b6:	46bd      	mov	sp, r7
 80002b8:	f85d 7b04 	ldr.w	r7, [sp], #4
 80002bc:	4770      	bx	lr
 80002be:	bf00      	nop
 80002c0:	44020c00 	.word	0x44020c00

080002c4 <LL_APB1_GRP1_EnableClock>:
  *
  *  (*)  : Not available for all stm32h5xxxx family lines.
  * @retval None
  */
__STATIC_INLINE void LL_APB1_GRP1_EnableClock(uint32_t Periphs)
{
 80002c4:	b480      	push	{r7}
 80002c6:	b085      	sub	sp, #20
 80002c8:	af00      	add	r7, sp, #0
 80002ca:	6078      	str	r0, [r7, #4]
  __IO uint32_t tmpreg;
  SET_BIT(RCC->APB1LENR, Periphs);
 80002cc:	4b0a      	ldr	r3, [pc, #40]	; (80002f8 <LL_APB1_GRP1_EnableClock+0x34>)
 80002ce:	f8d3 209c 	ldr.w	r2, [r3, #156]	; 0x9c
 80002d2:	4909      	ldr	r1, [pc, #36]	; (80002f8 <LL_APB1_GRP1_EnableClock+0x34>)
 80002d4:	687b      	ldr	r3, [r7, #4]
 80002d6:	4313      	orrs	r3, r2
 80002d8:	f8c1 309c 	str.w	r3, [r1, #156]	; 0x9c
  /* Delay after an RCC peripheral clock enabling */
  tmpreg = READ_BIT(RCC->APB1LENR, Periphs);
 80002dc:	4b06      	ldr	r3, [pc, #24]	; (80002f8 <LL_APB1_GRP1_EnableClock+0x34>)
 80002de:	f8d3 209c 	ldr.w	r2, [r3, #156]	; 0x9c
 80002e2:	687b      	ldr	r3, [r7, #4]
 80002e4:	4013      	ands	r3, r2
 80002e6:	60fb      	str	r3, [r7, #12]
  (void)tmpreg;
 80002e8:	68fb      	ldr	r3, [r7, #12]
}
 80002ea:	bf00      	nop
 80002ec:	3714      	adds	r7, #20
 80002ee:	46bd      	mov	sp, r7
 80002f0:	f85d 7b04 	ldr.w	r7, [sp], #4
 80002f4:	4770      	bx	lr
 80002f6:	bf00      	nop
 80002f8:	44020c00 	.word	0x44020c00

080002fc <LL_GPIO_SetPinMode>:
  *         @arg @ref LL_GPIO_MODE_ALTERNATE
  *         @arg @ref LL_GPIO_MODE_ANALOG
  * @retval None
  */
__STATIC_INLINE void LL_GPIO_SetPinMode(GPIO_TypeDef *GPIOx, uint32_t Pin, uint32_t Mode)
{
 80002fc:	b480      	push	{r7}
 80002fe:	b08b      	sub	sp, #44	; 0x2c
 8000300:	af00      	add	r7, sp, #0
 8000302:	60f8      	str	r0, [r7, #12]
 8000304:	60b9      	str	r1, [r7, #8]
 8000306:	607a      	str	r2, [r7, #4]
  MODIFY_REG(GPIOx->MODER, (GPIO_MODER_MODE0 << (POSITION_VAL(Pin) * GPIO_MODER_MODE1_Pos)),
 8000308:	68fb      	ldr	r3, [r7, #12]
 800030a:	681a      	ldr	r2, [r3, #0]
 800030c:	68bb      	ldr	r3, [r7, #8]
 800030e:	617b      	str	r3, [r7, #20]
  uint32_t result;

#if ((defined (__ARM_ARCH_7M__      ) && (__ARM_ARCH_7M__      == 1)) || \
     (defined (__ARM_ARCH_7EM__     ) && (__ARM_ARCH_7EM__     == 1)) || \
     (defined (__ARM_ARCH_8M_MAIN__ ) && (__ARM_ARCH_8M_MAIN__ == 1))    )
   __ASM ("rbit %0, %1" : "=r" (result) : "r" (value) );
 8000310:	697b      	ldr	r3, [r7, #20]
 8000312:	fa93 f3a3 	rbit	r3, r3
 8000316:	613b      	str	r3, [r7, #16]
    result |= value & 1U;
    s--;
  }
  result <<= s;                        /* shift when v's highest bits are zero */
#endif
  return result;
 8000318:	693b      	ldr	r3, [r7, #16]
 800031a:	61bb      	str	r3, [r7, #24]
     optimisations using the logic "value was passed to __builtin_clz, so it
     is non-zero".
     ARM GCC 7.3 and possibly earlier will optimise this test away, leaving a
     single CLZ instruction.
   */
  if (value == 0U)
 800031c:	69bb      	ldr	r3, [r7, #24]
 800031e:	2b00      	cmp	r3, #0
 8000320:	d101      	bne.n	8000326 <LL_GPIO_SetPinMode+0x2a>
  {
    return 32U;
 8000322:	2320      	movs	r3, #32
 8000324:	e003      	b.n	800032e <LL_GPIO_SetPinMode+0x32>
  }
  return __builtin_clz(value);
 8000326:	69bb      	ldr	r3, [r7, #24]
 8000328:	fab3 f383 	clz	r3, r3
 800032c:	b2db      	uxtb	r3, r3
 800032e:	005b      	lsls	r3, r3, #1
 8000330:	2103      	movs	r1, #3
 8000332:	fa01 f303 	lsl.w	r3, r1, r3
 8000336:	43db      	mvns	r3, r3
 8000338:	401a      	ands	r2, r3
 800033a:	68bb      	ldr	r3, [r7, #8]
 800033c:	623b      	str	r3, [r7, #32]
   __ASM ("rbit %0, %1" : "=r" (result) : "r" (value) );
 800033e:	6a3b      	ldr	r3, [r7, #32]
 8000340:	fa93 f3a3 	rbit	r3, r3
 8000344:	61fb      	str	r3, [r7, #28]
  return result;
 8000346:	69fb      	ldr	r3, [r7, #28]
 8000348:	627b      	str	r3, [r7, #36]	; 0x24
  if (value == 0U)
 800034a:	6a7b      	ldr	r3, [r7, #36]	; 0x24
 800034c:	2b00      	cmp	r3, #0
 800034e:	d101      	bne.n	8000354 <LL_GPIO_SetPinMode+0x58>
    return 32U;
 8000350:	2320      	movs	r3, #32
 8000352:	e003      	b.n	800035c <LL_GPIO_SetPinMode+0x60>
  return __builtin_clz(value);
 8000354:	6a7b      	ldr	r3, [r7, #36]	; 0x24
 8000356:	fab3 f383 	clz	r3, r3
 800035a:	b2db      	uxtb	r3, r3
 800035c:	005b      	lsls	r3, r3, #1
 800035e:	6879      	ldr	r1, [r7, #4]
 8000360:	fa01 f303 	lsl.w	r3, r1, r3
 8000364:	431a      	orrs	r2, r3
 8000366:	68fb      	ldr	r3, [r7, #12]
 8000368:	601a      	str	r2, [r3, #0]
             (Mode << (POSITION_VAL(Pin) * GPIO_MODER_MODE1_Pos)));
}
 800036a:	bf00      	nop
 800036c:	372c      	adds	r7, #44	; 0x2c
 800036e:	46bd      	mov	sp, r7
 8000370:	f85d 7b04 	ldr.w	r7, [sp], #4
 8000374:	4770      	bx	lr

08000376 <LL_GPIO_SetPinOutputType>:
  *         @arg @ref LL_GPIO_OUTPUT_PUSHPULL
  *         @arg @ref LL_GPIO_OUTPUT_OPENDRAIN
  * @retval None
  */
__STATIC_INLINE void LL_GPIO_SetPinOutputType(GPIO_TypeDef *GPIOx, uint32_t PinMask, uint32_t OutputType)
{
 8000376:	b480      	push	{r7}
 8000378:	b085      	sub	sp, #20
 800037a:	af00      	add	r7, sp, #0
 800037c:	60f8      	str	r0, [r7, #12]
 800037e:	60b9      	str	r1, [r7, #8]
 8000380:	607a      	str	r2, [r7, #4]
  MODIFY_REG(GPIOx->OTYPER, PinMask, (PinMask * OutputType));
 8000382:	68fb      	ldr	r3, [r7, #12]
 8000384:	685a      	ldr	r2, [r3, #4]
 8000386:	68bb      	ldr	r3, [r7, #8]
 8000388:	43db      	mvns	r3, r3
 800038a:	401a      	ands	r2, r3
 800038c:	68bb      	ldr	r3, [r7, #8]
 800038e:	6879      	ldr	r1, [r7, #4]
 8000390:	fb01 f303 	mul.w	r3, r1, r3
 8000394:	431a      	orrs	r2, r3
 8000396:	68fb      	ldr	r3, [r7, #12]
 8000398:	605a      	str	r2, [r3, #4]
}
 800039a:	bf00      	nop
 800039c:	3714      	adds	r7, #20
 800039e:	46bd      	mov	sp, r7
 80003a0:	f85d 7b04 	ldr.w	r7, [sp], #4
 80003a4:	4770      	bx	lr

080003a6 <LL_GPIO_SetPinSpeed>:
  *         @arg @ref LL_GPIO_SPEED_FREQ_HIGH
  *         @arg @ref LL_GPIO_SPEED_FREQ_VERY_HIGH
  * @retval None
  */
__STATIC_INLINE void LL_GPIO_SetPinSpeed(GPIO_TypeDef *GPIOx, uint32_t Pin, uint32_t  Speed)
{
 80003a6:	b480      	push	{r7}
 80003a8:	b08b      	sub	sp, #44	; 0x2c
 80003aa:	af00      	add	r7, sp, #0
 80003ac:	60f8      	str	r0, [r7, #12]
 80003ae:	60b9      	str	r1, [r7, #8]
 80003b0:	607a      	str	r2, [r7, #4]
  MODIFY_REG(GPIOx->OSPEEDR, (GPIO_OSPEEDR_OSPEED0 << (POSITION_VAL(Pin) * GPIO_OSPEEDR_OSPEED1_Pos)),
 80003b2:	68fb      	ldr	r3, [r7, #12]
 80003b4:	689a      	ldr	r2, [r3, #8]
 80003b6:	68bb      	ldr	r3, [r7, #8]
 80003b8:	617b      	str	r3, [r7, #20]
   __ASM ("rbit %0, %1" : "=r" (result) : "r" (value) );
 80003ba:	697b      	ldr	r3, [r7, #20]
 80003bc:	fa93 f3a3 	rbit	r3, r3
 80003c0:	613b      	str	r3, [r7, #16]
  return result;
 80003c2:	693b      	ldr	r3, [r7, #16]
 80003c4:	61bb      	str	r3, [r7, #24]
  if (value == 0U)
 80003c6:	69bb      	ldr	r3, [r7, #24]
 80003c8:	2b00      	cmp	r3, #0
 80003ca:	d101      	bne.n	80003d0 <LL_GPIO_SetPinSpeed+0x2a>
    return 32U;
 80003cc:	2320      	movs	r3, #32
 80003ce:	e003      	b.n	80003d8 <LL_GPIO_SetPinSpeed+0x32>
  return __builtin_clz(value);
 80003d0:	69bb      	ldr	r3, [r7, #24]
 80003d2:	fab3 f383 	clz	r3, r3
 80003d6:	b2db      	uxtb	r3, r3
 80003d8:	005b      	lsls	r3, r3, #1
 80003da:	2103      	movs	r1, #3
 80003dc:	fa01 f303 	lsl.w	r3, r1, r3
 80003e0:	43db      	mvns	r3, r3
 80003e2:	401a      	ands	r2, r3
 80003e4:	68bb      	ldr	r3, [r7, #8]
 80003e6:	623b      	str	r3, [r7, #32]
   __ASM ("rbit %0, %1" : "=r" (result) : "r" (value) );
 80003e8:	6a3b      	ldr	r3, [r7, #32]
 80003ea:	fa93 f3a3 	rbit	r3, r3
 80003ee:	61fb      	str	r3, [r7, #28]
  return result;
 80003f0:	69fb      	ldr	r3, [r7, #28]
 80003f2:	627b      	str	r3, [r7, #36]	; 0x24
  if (value == 0U)
 80003f4:	6a7b      	ldr	r3, [r7, #36]	; 0x24
 80003f6:	2b00      	cmp	r3, #0
 80003f8:	d101      	bne.n	80003fe <LL_GPIO_SetPinSpeed+0x58>
    return 32U;
 80003fa:	2320      	movs	r3, #32
 80003fc:	e003      	b.n	8000406 <LL_GPIO_SetPinSpeed+0x60>
  return __builtin_clz(value);
 80003fe:	6a7b      	ldr	r3, [r7, #36]	; 0x24
 8000400:	fab3 f383 	clz	r3, r3
 8000404:	b2db      	uxtb	r3, r3
 8000406:	005b      	lsls	r3, r3, #1
 8000408:	6879      	ldr	r1, [r7, #4]
 800040a:	fa01 f303 	lsl.w	r3, r1, r3
 800040e:	431a      	orrs	r2, r3
 8000410:	68fb      	ldr	r3, [r7, #12]
 8000412:	609a      	str	r2, [r3, #8]
             (Speed << (POSITION_VAL(Pin) * GPIO_OSPEEDR_OSPEED1_Pos)));
}
 8000414:	bf00      	nop
 8000416:	372c      	adds	r7, #44	; 0x2c
 8000418:	46bd      	mov	sp, r7
 800041a:	f85d 7b04 	ldr.w	r7, [sp], #4
 800041e:	4770      	bx	lr

08000420 <LL_GPIO_SetPinPull>:
  *         @arg @ref LL_GPIO_PULL_UP
  *         @arg @ref LL_GPIO_PULL_DOWN
  * @retval None
  */
__STATIC_INLINE void LL_GPIO_SetPinPull(GPIO_TypeDef *GPIOx, uint32_t Pin, uint32_t Pull)
{
 8000420:	b480      	push	{r7}
 8000422:	b08b      	sub	sp, #44	; 0x2c
 8000424:	af00      	add	r7, sp, #0
 8000426:	60f8      	str	r0, [r7, #12]
 8000428:	60b9      	str	r1, [r7, #8]
 800042a:	607a      	str	r2, [r7, #4]
  MODIFY_REG(GPIOx->PUPDR, (GPIO_PUPDR_PUPD0 << (POSITION_VAL(Pin) * GPIO_PUPDR_PUPD1_Pos)),
 800042c:	68fb      	ldr	r3, [r7, #12]
 800042e:	68da      	ldr	r2, [r3, #12]
 8000430:	68bb      	ldr	r3, [r7, #8]
 8000432:	617b      	str	r3, [r7, #20]
   __ASM ("rbit %0, %1" : "=r" (result) : "r" (value) );
 8000434:	697b      	ldr	r3, [r7, #20]
 8000436:	fa93 f3a3 	rbit	r3, r3
 800043a:	613b      	str	r3, [r7, #16]
  return result;
 800043c:	693b      	ldr	r3, [r7, #16]
 800043e:	61bb      	str	r3, [r7, #24]
  if (value == 0U)
 8000440:	69bb      	ldr	r3, [r7, #24]
 8000442:	2b00      	cmp	r3, #0
 8000444:	d101      	bne.n	800044a <LL_GPIO_SetPinPull+0x2a>
    return 32U;
 8000446:	2320      	movs	r3, #32
 8000448:	e003      	b.n	8000452 <LL_GPIO_SetPinPull+0x32>
  return __builtin_clz(value);
 800044a:	69bb      	ldr	r3, [r7, #24]
 800044c:	fab3 f383 	clz	r3, r3
 8000450:	b2db      	uxtb	r3, r3
 8000452:	005b      	lsls	r3, r3, #1
 8000454:	2103      	movs	r1, #3
 8000456:	fa01 f303 	lsl.w	r3, r1, r3
 800045a:	43db      	mvns	r3, r3
 800045c:	401a      	ands	r2, r3
 800045e:	68bb      	ldr	r3, [r7, #8]
 8000460:	623b      	str	r3, [r7, #32]
   __ASM ("rbit %0, %1" : "=r" (result) : "r" (value) );
 8000462:	6a3b      	ldr	r3, [r7, #32]
 8000464:	fa93 f3a3 	rbit	r3, r3
 8000468:	61fb      	str	r3, [r7, #28]
  return result;
 800046a:	69fb      	ldr	r3, [r7, #28]
 800046c:	627b      	str	r3, [r7, #36]	; 0x24
  if (value == 0U)
 800046e:	6a7b      	ldr	r3, [r7, #36]	; 0x24
 8000470:	2b00      	cmp	r3, #0
 8000472:	d101      	bne.n	8000478 <LL_GPIO_SetPinPull+0x58>
    return 32U;
 8000474:	2320      	movs	r3, #32
 8000476:	e003      	b.n	8000480 <LL_GPIO_SetPinPull+0x60>
  return __builtin_clz(value);
 8000478:	6a7b      	ldr	r3, [r7, #36]	; 0x24
 800047a:	fab3 f383 	clz	r3, r3
 800047e:	b2db      	uxtb	r3, r3
 8000480:	005b      	lsls	r3, r3, #1
 8000482:	6879      	ldr	r1, [r7, #4]
 8000484:	fa01 f303 	lsl.w	r3, r1, r3
 8000488:	431a      	orrs	r2, r3
 800048a:	68fb      	ldr	r3, [r7, #12]
 800048c:	60da      	str	r2, [r3, #12]
             (Pull << (POSITION_VAL(Pin) * GPIO_PUPDR_PUPD1_Pos)));
}
 800048e:	bf00      	nop
 8000490:	372c      	adds	r7, #44	; 0x2c
 8000492:	46bd      	mov	sp, r7
 8000494:	f85d 7b04 	ldr.w	r7, [sp], #4
 8000498:	4770      	bx	lr

0800049a <LL_GPIO_SetAFPin_0_7>:
  *         @arg @ref LL_GPIO_AF_14
  *         @arg @ref LL_GPIO_AF_15
  * @retval None
  */
__STATIC_INLINE void LL_GPIO_SetAFPin_0_7(GPIO_TypeDef *GPIOx, uint32_t Pin, uint32_t Alternate)
{
 800049a:	b480      	push	{r7}
 800049c:	b08b      	sub	sp, #44	; 0x2c
 800049e:	af00      	add	r7, sp, #0
 80004a0:	60f8      	str	r0, [r7, #12]
 80004a2:	60b9      	str	r1, [r7, #8]
 80004a4:	607a      	str	r2, [r7, #4]
  MODIFY_REG(GPIOx->AFR[0], (GPIO_AFRL_AFSEL0 << (POSITION_VAL(Pin) * GPIO_AFRL_AFSEL1_Pos)),
 80004a6:	68fb      	ldr	r3, [r7, #12]
 80004a8:	6a1a      	ldr	r2, [r3, #32]
 80004aa:	68bb      	ldr	r3, [r7, #8]
 80004ac:	617b      	str	r3, [r7, #20]
   __ASM ("rbit %0, %1" : "=r" (result) : "r" (value) );
 80004ae:	697b      	ldr	r3, [r7, #20]
 80004b0:	fa93 f3a3 	rbit	r3, r3
 80004b4:	613b      	str	r3, [r7, #16]
  return result;
 80004b6:	693b      	ldr	r3, [r7, #16]
 80004b8:	61bb      	str	r3, [r7, #24]
  if (value == 0U)
 80004ba:	69bb      	ldr	r3, [r7, #24]
 80004bc:	2b00      	cmp	r3, #0
 80004be:	d101      	bne.n	80004c4 <LL_GPIO_SetAFPin_0_7+0x2a>
    return 32U;
 80004c0:	2320      	movs	r3, #32
 80004c2:	e003      	b.n	80004cc <LL_GPIO_SetAFPin_0_7+0x32>
  return __builtin_clz(value);
 80004c4:	69bb      	ldr	r3, [r7, #24]
 80004c6:	fab3 f383 	clz	r3, r3
 80004ca:	b2db      	uxtb	r3, r3
 80004cc:	009b      	lsls	r3, r3, #2
 80004ce:	210f      	movs	r1, #15
 80004d0:	fa01 f303 	lsl.w	r3, r1, r3
 80004d4:	43db      	mvns	r3, r3
 80004d6:	401a      	ands	r2, r3
 80004d8:	68bb      	ldr	r3, [r7, #8]
 80004da:	623b      	str	r3, [r7, #32]
   __ASM ("rbit %0, %1" : "=r" (result) : "r" (value) );
 80004dc:	6a3b      	ldr	r3, [r7, #32]
 80004de:	fa93 f3a3 	rbit	r3, r3
 80004e2:	61fb      	str	r3, [r7, #28]
  return result;
 80004e4:	69fb      	ldr	r3, [r7, #28]
 80004e6:	627b      	str	r3, [r7, #36]	; 0x24
  if (value == 0U)
 80004e8:	6a7b      	ldr	r3, [r7, #36]	; 0x24
 80004ea:	2b00      	cmp	r3, #0
 80004ec:	d101      	bne.n	80004f2 <LL_GPIO_SetAFPin_0_7+0x58>
    return 32U;
 80004ee:	2320      	movs	r3, #32
 80004f0:	e003      	b.n	80004fa <LL_GPIO_SetAFPin_0_7+0x60>
  return __builtin_clz(value);
 80004f2:	6a7b      	ldr	r3, [r7, #36]	; 0x24
 80004f4:	fab3 f383 	clz	r3, r3
 80004f8:	b2db      	uxtb	r3, r3
 80004fa:	009b      	lsls	r3, r3, #2
 80004fc:	6879      	ldr	r1, [r7, #4]
 80004fe:	fa01 f303 	lsl.w	r3, r1, r3
 8000502:	431a      	orrs	r2, r3
 8000504:	68fb      	ldr	r3, [r7, #12]
 8000506:	621a      	str	r2, [r3, #32]
             (Alternate << (POSITION_VAL(Pin) * GPIO_AFRL_AFSEL1_Pos)));
}
 8000508:	bf00      	nop
 800050a:	372c      	adds	r7, #44	; 0x2c
 800050c:	46bd      	mov	sp, r7
 800050e:	f85d 7b04 	ldr.w	r7, [sp], #4
 8000512:	4770      	bx	lr

08000514 <LL_GPIO_SetAFPin_8_15>:
  *         @arg @ref LL_GPIO_AF_14
  *         @arg @ref LL_GPIO_AF_15
  * @retval None
  */
__STATIC_INLINE void LL_GPIO_SetAFPin_8_15(GPIO_TypeDef *GPIOx, uint32_t Pin, uint32_t Alternate)
{
 8000514:	b480      	push	{r7}
 8000516:	b08b      	sub	sp, #44	; 0x2c
 8000518:	af00      	add	r7, sp, #0
 800051a:	60f8      	str	r0, [r7, #12]
 800051c:	60b9      	str	r1, [r7, #8]
 800051e:	607a      	str	r2, [r7, #4]
  MODIFY_REG(GPIOx->AFR[1], (GPIO_AFRH_AFSEL8 << (POSITION_VAL(Pin >> 8U) * GPIO_AFRH_AFSEL9_Pos)),
 8000520:	68fb      	ldr	r3, [r7, #12]
 8000522:	6a5a      	ldr	r2, [r3, #36]	; 0x24
 8000524:	68bb      	ldr	r3, [r7, #8]
 8000526:	0a1b      	lsrs	r3, r3, #8
 8000528:	617b      	str	r3, [r7, #20]
   __ASM ("rbit %0, %1" : "=r" (result) : "r" (value) );
 800052a:	697b      	ldr	r3, [r7, #20]
 800052c:	fa93 f3a3 	rbit	r3, r3
 8000530:	613b      	str	r3, [r7, #16]
  return result;
 8000532:	693b      	ldr	r3, [r7, #16]
 8000534:	61bb      	str	r3, [r7, #24]
  if (value == 0U)
 8000536:	69bb      	ldr	r3, [r7, #24]
 8000538:	2b00      	cmp	r3, #0
 800053a:	d101      	bne.n	8000540 <LL_GPIO_SetAFPin_8_15+0x2c>
    return 32U;
 800053c:	2320      	movs	r3, #32
 800053e:	e003      	b.n	8000548 <LL_GPIO_SetAFPin_8_15+0x34>
  return __builtin_clz(value);
 8000540:	69bb      	ldr	r3, [r7, #24]
 8000542:	fab3 f383 	clz	r3, r3
 8000546:	b2db      	uxtb	r3, r3
 8000548:	009b      	lsls	r3, r3, #2
 800054a:	210f      	movs	r1, #15
 800054c:	fa01 f303 	lsl.w	r3, r1, r3
 8000550:	43db      	mvns	r3, r3
 8000552:	401a      	ands	r2, r3
 8000554:	68bb      	ldr	r3, [r7, #8]
 8000556:	0a1b      	lsrs	r3, r3, #8
 8000558:	623b      	str	r3, [r7, #32]
   __ASM ("rbit %0, %1" : "=r" (result) : "r" (value) );
 800055a:	6a3b      	ldr	r3, [r7, #32]
 800055c:	fa93 f3a3 	rbit	r3, r3
 8000560:	61fb      	str	r3, [r7, #28]
  return result;
 8000562:	69fb      	ldr	r3, [r7, #28]
 8000564:	627b      	str	r3, [r7, #36]	; 0x24
  if (value == 0U)
 8000566:	6a7b      	ldr	r3, [r7, #36]	; 0x24
 8000568:	2b00      	cmp	r3, #0
 800056a:	d101      	bne.n	8000570 <LL_GPIO_SetAFPin_8_15+0x5c>
    return 32U;
 800056c:	2320      	movs	r3, #32
 800056e:	e003      	b.n	8000578 <LL_GPIO_SetAFPin_8_15+0x64>
  return __builtin_clz(value);
 8000570:	6a7b      	ldr	r3, [r7, #36]	; 0x24
 8000572:	fab3 f383 	clz	r3, r3
 8000576:	b2db      	uxtb	r3, r3
 8000578:	009b      	lsls	r3, r3, #2
 800057a:	6879      	ldr	r1, [r7, #4]
 800057c:	fa01 f303 	lsl.w	r3, r1, r3
 8000580:	431a      	orrs	r2, r3
 8000582:	68fb      	ldr	r3, [r7, #12]
 8000584:	625a      	str	r2, [r3, #36]	; 0x24
             (Alternate << (POSITION_VAL(Pin >> 8U) * GPIO_AFRH_AFSEL9_Pos)));
}
 8000586:	bf00      	nop
 8000588:	372c      	adds	r7, #44	; 0x2c
 800058a:	46bd      	mov	sp, r7
 800058c:	f85d 7b04 	ldr.w	r7, [sp], #4
 8000590:	4770      	bx	lr

08000592 <LL_GPIO_SetOutputPin>:
  *         @arg @ref LL_GPIO_PIN_15
  *         @arg @ref LL_GPIO_PIN_ALL
  * @retval None
  */
__STATIC_INLINE void LL_GPIO_SetOutputPin(GPIO_TypeDef *GPIOx, uint32_t PinMask)
{
 8000592:	b480      	push	{r7}
 8000594:	b083      	sub	sp, #12
 8000596:	af00      	add	r7, sp, #0
 8000598:	6078      	str	r0, [r7, #4]
 800059a:	6039      	str	r1, [r7, #0]
  WRITE_REG(GPIOx->BSRR, PinMask);
 800059c:	687b      	ldr	r3, [r7, #4]
 800059e:	683a      	ldr	r2, [r7, #0]
 80005a0:	619a      	str	r2, [r3, #24]
}
 80005a2:	bf00      	nop
 80005a4:	370c      	adds	r7, #12
 80005a6:	46bd      	mov	sp, r7
 80005a8:	f85d 7b04 	ldr.w	r7, [sp], #4
 80005ac:	4770      	bx	lr

080005ae <LL_GPIO_ResetOutputPin>:
  *         @arg @ref LL_GPIO_PIN_15
  *         @arg @ref LL_GPIO_PIN_ALL
  * @retval None
  */
__STATIC_INLINE void LL_GPIO_ResetOutputPin(GPIO_TypeDef *GPIOx, uint32_t PinMask)
{
 80005ae:	b480      	push	{r7}
 80005b0:	b083      	sub	sp, #12
 80005b2:	af00      	add	r7, sp, #0
 80005b4:	6078      	str	r0, [r7, #4]
 80005b6:	6039      	str	r1, [r7, #0]
  WRITE_REG(GPIOx->BRR, PinMask);
 80005b8:	687b      	ldr	r3, [r7, #4]
 80005ba:	683a      	ldr	r2, [r7, #0]
 80005bc:	629a      	str	r2, [r3, #40]	; 0x28
}
 80005be:	bf00      	nop
 80005c0:	370c      	adds	r7, #12
 80005c2:	46bd      	mov	sp, r7
 80005c4:	f85d 7b04 	ldr.w	r7, [sp], #4
 80005c8:	4770      	bx	lr

080005ca <DDR5_GPIO_ClocksEnable>:
/* =========================================================
   GPIO clock enable
   ========================================================= */

static inline void DDR5_GPIO_ClocksEnable(void)
{
 80005ca:	b580      	push	{r7, lr}
 80005cc:	af00      	add	r7, sp, #0
    LL_AHB2_GRP1_EnableClock(LL_AHB2_GRP1_PERIPH_GPIOB);
 80005ce:	2002      	movs	r0, #2
 80005d0:	f7ff fe5c 	bl	800028c <LL_AHB2_GRP1_EnableClock>
    LL_AHB2_GRP1_EnableClock(LL_AHB2_GRP1_PERIPH_GPIOC);
 80005d4:	2004      	movs	r0, #4
 80005d6:	f7ff fe59 	bl	800028c <LL_AHB2_GRP1_EnableClock>
    LL_AHB2_GRP1_EnableClock(LL_AHB2_GRP1_PERIPH_GPIOD);
 80005da:	2008      	movs	r0, #8
 80005dc:	f7ff fe56 	bl	800028c <LL_AHB2_GRP1_EnableClock>
    LL_AHB2_GRP1_EnableClock(LL_AHB2_GRP1_PERIPH_GPIOE);
 80005e0:	2010      	movs	r0, #16
 80005e2:	f7ff fe53 	bl	800028c <LL_AHB2_GRP1_EnableClock>
    LL_AHB2_GRP1_EnableClock(LL_AHB2_GRP1_PERIPH_GPIOF);
 80005e6:	2020      	movs	r0, #32
 80005e8:	f7ff fe50 	bl	800028c <LL_AHB2_GRP1_EnableClock>
}
 80005ec:	bf00      	nop
 80005ee:	bd80      	pop	{r7, pc}

080005f0 <LL_I2C_Enable>:
  * @rmtoll CR1          PE            LL_I2C_Enable
  * @param  I2Cx I2C Instance.
  * @retval None
  */
__STATIC_INLINE void LL_I2C_Enable(I2C_TypeDef *I2Cx)
{
 80005f0:	b480      	push	{r7}
 80005f2:	b083      	sub	sp, #12
 80005f4:	af00      	add	r7, sp, #0
 80005f6:	6078      	str	r0, [r7, #4]
  SET_BIT(I2Cx->CR1, I2C_CR1_PE);
 80005f8:	687b      	ldr	r3, [r7, #4]
 80005fa:	681b      	ldr	r3, [r3, #0]
 80005fc:	f043 0201 	orr.w	r2, r3, #1
 8000600:	687b      	ldr	r3, [r7, #4]
 8000602:	601a      	str	r2, [r3, #0]
}
 8000604:	bf00      	nop
 8000606:	370c      	adds	r7, #12
 8000608:	46bd      	mov	sp, r7
 800060a:	f85d 7b04 	ldr.w	r7, [sp], #4
 800060e:	4770      	bx	lr

08000610 <LL_I2C_Disable>:
  * @rmtoll CR1          PE            LL_I2C_Disable
  * @param  I2Cx I2C Instance.
  * @retval None
  */
__STATIC_INLINE void LL_I2C_Disable(I2C_TypeDef *I2Cx)
{
 8000610:	b480      	push	{r7}
 8000612:	b083      	sub	sp, #12
 8000614:	af00      	add	r7, sp, #0
 8000616:	6078      	str	r0, [r7, #4]
  CLEAR_BIT(I2Cx->CR1, I2C_CR1_PE);
 8000618:	687b      	ldr	r3, [r7, #4]
 800061a:	681b      	ldr	r3, [r3, #0]
 800061c:	f023 0201 	bic.w	r2, r3, #1
 8000620:	687b      	ldr	r3, [r7, #4]
 8000622:	601a      	str	r2, [r3, #0]
}
 8000624:	bf00      	nop
 8000626:	370c      	adds	r7, #12
 8000628:	46bd      	mov	sp, r7
 800062a:	f85d 7b04 	ldr.w	r7, [sp], #4
 800062e:	4770      	bx	lr

08000630 <LL_I2C_SetDigitalFilter>:
  *         This parameter is used to configure the digital noise filter on SDA and SCL input.
  *         The digital filter will filter spikes with a length of up to DNF[3:0]*ti2cclk.
  * @retval None
  */
__STATIC_INLINE void LL_I2C_SetDigitalFilter(I2C_TypeDef *I2Cx, uint32_t DigitalFilter)
{
 8000630:	b480      	push	{r7}
 8000632:	b083      	sub	sp, #12
 8000634:	af00      	add	r7, sp, #0
 8000636:	6078      	str	r0, [r7, #4]
 8000638:	6039      	str	r1, [r7, #0]
  MODIFY_REG(I2Cx->CR1, I2C_CR1_DNF, DigitalFilter << I2C_CR1_DNF_Pos);
 800063a:	687b      	ldr	r3, [r7, #4]
 800063c:	681b      	ldr	r3, [r3, #0]
 800063e:	f423 6270 	bic.w	r2, r3, #3840	; 0xf00
 8000642:	683b      	ldr	r3, [r7, #0]
 8000644:	021b      	lsls	r3, r3, #8
 8000646:	431a      	orrs	r2, r3
 8000648:	687b      	ldr	r3, [r7, #4]
 800064a:	601a      	str	r2, [r3, #0]
}
 800064c:	bf00      	nop
 800064e:	370c      	adds	r7, #12
 8000650:	46bd      	mov	sp, r7
 8000652:	f85d 7b04 	ldr.w	r7, [sp], #4
 8000656:	4770      	bx	lr

08000658 <LL_I2C_EnableAnalogFilter>:
  * @rmtoll CR1          ANFOFF        LL_I2C_EnableAnalogFilter
  * @param  I2Cx I2C Instance.
  * @retval None
  */
__STATIC_INLINE void LL_I2C_EnableAnalogFilter(I2C_TypeDef *I2Cx)
{
 8000658:	b480      	push	{r7}
 800065a:	b083      	sub	sp, #12
 800065c:	af00      	add	r7, sp, #0
 800065e:	6078      	str	r0, [r7, #4]
  CLEAR_BIT(I2Cx->CR1, I2C_CR1_ANFOFF);
 8000660:	687b      	ldr	r3, [r7, #4]
 8000662:	681b      	ldr	r3, [r3, #0]
 8000664:	f423 5280 	bic.w	r2, r3, #4096	; 0x1000
 8000668:	687b      	ldr	r3, [r7, #4]
 800066a:	601a      	str	r2, [r3, #0]
}
 800066c:	bf00      	nop
 800066e:	370c      	adds	r7, #12
 8000670:	46bd      	mov	sp, r7
 8000672:	f85d 7b04 	ldr.w	r7, [sp], #4
 8000676:	4770      	bx	lr

08000678 <LL_I2C_DisableGeneralCall>:
  * @rmtoll CR1          GCEN          LL_I2C_DisableGeneralCall
  * @param  I2Cx I2C Instance.
  * @retval None
  */
__STATIC_INLINE void LL_I2C_DisableGeneralCall(I2C_TypeDef *I2Cx)
{
 8000678:	b480      	push	{r7}
 800067a:	b083      	sub	sp, #12
 800067c:	af00      	add	r7, sp, #0
 800067e:	6078      	str	r0, [r7, #4]
  CLEAR_BIT(I2Cx->CR1, I2C_CR1_GCEN);
 8000680:	687b      	ldr	r3, [r7, #4]
 8000682:	681b      	ldr	r3, [r3, #0]
 8000684:	f423 2200 	bic.w	r2, r3, #524288	; 0x80000
 8000688:	687b      	ldr	r3, [r7, #4]
 800068a:	601a      	str	r2, [r3, #0]
}
 800068c:	bf00      	nop
 800068e:	370c      	adds	r7, #12
 8000690:	46bd      	mov	sp, r7
 8000692:	f85d 7b04 	ldr.w	r7, [sp], #4
 8000696:	4770      	bx	lr

08000698 <LL_I2C_SetOwnAddress1>:
  *         @arg @ref LL_I2C_OWNADDRESS1_7BIT
  *         @arg @ref LL_I2C_OWNADDRESS1_10BIT
  * @retval None
  */
__STATIC_INLINE void LL_I2C_SetOwnAddress1(I2C_TypeDef *I2Cx, uint32_t OwnAddress1, uint32_t OwnAddrSize)
{
 8000698:	b480      	push	{r7}
 800069a:	b085      	sub	sp, #20
 800069c:	af00      	add	r7, sp, #0
 800069e:	60f8      	str	r0, [r7, #12]
 80006a0:	60b9      	str	r1, [r7, #8]
 80006a2:	607a      	str	r2, [r7, #4]
  MODIFY_REG(I2Cx->OAR1, I2C_OAR1_OA1 | I2C_OAR1_OA1MODE, OwnAddress1 | OwnAddrSize);
 80006a4:	68fb      	ldr	r3, [r7, #12]
 80006a6:	689b      	ldr	r3, [r3, #8]
 80006a8:	f423 63ff 	bic.w	r3, r3, #2040	; 0x7f8
 80006ac:	f023 0307 	bic.w	r3, r3, #7
 80006b0:	68b9      	ldr	r1, [r7, #8]
 80006b2:	687a      	ldr	r2, [r7, #4]
 80006b4:	430a      	orrs	r2, r1
 80006b6:	431a      	orrs	r2, r3
 80006b8:	68fb      	ldr	r3, [r7, #12]
 80006ba:	609a      	str	r2, [r3, #8]
}
 80006bc:	bf00      	nop
 80006be:	3714      	adds	r7, #20
 80006c0:	46bd      	mov	sp, r7
 80006c2:	f85d 7b04 	ldr.w	r7, [sp], #4
 80006c6:	4770      	bx	lr

080006c8 <LL_I2C_DisableOwnAddress1>:
  * @rmtoll OAR1         OA1EN         LL_I2C_DisableOwnAddress1
  * @param  I2Cx I2C Instance.
  * @retval None
  */
__STATIC_INLINE void LL_I2C_DisableOwnAddress1(I2C_TypeDef *I2Cx)
{
 80006c8:	b480      	push	{r7}
 80006ca:	b083      	sub	sp, #12
 80006cc:	af00      	add	r7, sp, #0
 80006ce:	6078      	str	r0, [r7, #4]
  CLEAR_BIT(I2Cx->OAR1, I2C_OAR1_OA1EN);
 80006d0:	687b      	ldr	r3, [r7, #4]
 80006d2:	689b      	ldr	r3, [r3, #8]
 80006d4:	f423 4200 	bic.w	r2, r3, #32768	; 0x8000
 80006d8:	687b      	ldr	r3, [r7, #4]
 80006da:	609a      	str	r2, [r3, #8]
}
 80006dc:	bf00      	nop
 80006de:	370c      	adds	r7, #12
 80006e0:	46bd      	mov	sp, r7
 80006e2:	f85d 7b04 	ldr.w	r7, [sp], #4
 80006e6:	4770      	bx	lr

080006e8 <LL_I2C_SetTiming>:
  * @param  Timing This parameter must be a value between Min_Data=0 and Max_Data=0xFFFFFFFF.
  * @note   This parameter is computed with the STM32CubeMX Tool.
  * @retval None
  */
__STATIC_INLINE void LL_I2C_SetTiming(I2C_TypeDef *I2Cx, uint32_t Timing)
{
 80006e8:	b480      	push	{r7}
 80006ea:	b083      	sub	sp, #12
 80006ec:	af00      	add	r7, sp, #0
 80006ee:	6078      	str	r0, [r7, #4]
 80006f0:	6039      	str	r1, [r7, #0]
  WRITE_REG(I2Cx->TIMINGR, Timing);
 80006f2:	687b      	ldr	r3, [r7, #4]
 80006f4:	683a      	ldr	r2, [r7, #0]
 80006f6:	611a      	str	r2, [r3, #16]
}
 80006f8:	bf00      	nop
 80006fa:	370c      	adds	r7, #12
 80006fc:	46bd      	mov	sp, r7
 80006fe:	f85d 7b04 	ldr.w	r7, [sp], #4
 8000702:	4770      	bx	lr

08000704 <LL_I2C_SetMode>:
  *         @arg @ref LL_I2C_MODE_SMBUS_DEVICE
  *         @arg @ref LL_I2C_MODE_SMBUS_DEVICE_ARP
  * @retval None
  */
__STATIC_INLINE void LL_I2C_SetMode(I2C_TypeDef *I2Cx, uint32_t PeripheralMode)
{
 8000704:	b480      	push	{r7}
 8000706:	b083      	sub	sp, #12
 8000708:	af00      	add	r7, sp, #0
 800070a:	6078      	str	r0, [r7, #4]
 800070c:	6039      	str	r1, [r7, #0]
  MODIFY_REG(I2Cx->CR1, I2C_CR1_SMBHEN | I2C_CR1_SMBDEN, PeripheralMode);
 800070e:	687b      	ldr	r3, [r7, #4]
 8000710:	681b      	ldr	r3, [r3, #0]
 8000712:	f423 1240 	bic.w	r2, r3, #3145728	; 0x300000
 8000716:	683b      	ldr	r3, [r7, #0]
 8000718:	431a      	orrs	r2, r3
 800071a:	687b      	ldr	r3, [r7, #4]
 800071c:	601a      	str	r2, [r3, #0]
}
 800071e:	bf00      	nop
 8000720:	370c      	adds	r7, #12
 8000722:	46bd      	mov	sp, r7
 8000724:	f85d 7b04 	ldr.w	r7, [sp], #4
 8000728:	4770      	bx	lr

0800072a <LL_I2C_IsActiveFlag_TXIS>:
  * @rmtoll ISR          TXIS          LL_I2C_IsActiveFlag_TXIS
  * @param  I2Cx I2C Instance.
  * @retval State of bit (1 or 0).
  */
__STATIC_INLINE uint32_t LL_I2C_IsActiveFlag_TXIS(const I2C_TypeDef *I2Cx)
{
 800072a:	b480      	push	{r7}
 800072c:	b083      	sub	sp, #12
 800072e:	af00      	add	r7, sp, #0
 8000730:	6078      	str	r0, [r7, #4]
  return ((READ_BIT(I2Cx->ISR, I2C_ISR_TXIS) == (I2C_ISR_TXIS)) ? 1UL : 0UL);
 8000732:	687b      	ldr	r3, [r7, #4]
 8000734:	699b      	ldr	r3, [r3, #24]
 8000736:	f003 0302 	and.w	r3, r3, #2
 800073a:	2b02      	cmp	r3, #2
 800073c:	d101      	bne.n	8000742 <LL_I2C_IsActiveFlag_TXIS+0x18>
 800073e:	2301      	movs	r3, #1
 8000740:	e000      	b.n	8000744 <LL_I2C_IsActiveFlag_TXIS+0x1a>
 8000742:	2300      	movs	r3, #0
}
 8000744:	4618      	mov	r0, r3
 8000746:	370c      	adds	r7, #12
 8000748:	46bd      	mov	sp, r7
 800074a:	f85d 7b04 	ldr.w	r7, [sp], #4
 800074e:	4770      	bx	lr

08000750 <LL_I2C_IsActiveFlag_NACK>:
  * @rmtoll ISR          NACKF         LL_I2C_IsActiveFlag_NACK
  * @param  I2Cx I2C Instance.
  * @retval State of bit (1 or 0).
  */
__STATIC_INLINE uint32_t LL_I2C_IsActiveFlag_NACK(const I2C_TypeDef *I2Cx)
{
 8000750:	b480      	push	{r7}
 8000752:	b083      	sub	sp, #12
 8000754:	af00      	add	r7, sp, #0
 8000756:	6078      	str	r0, [r7, #4]
  return ((READ_BIT(I2Cx->ISR, I2C_ISR_NACKF) == (I2C_ISR_NACKF)) ? 1UL : 0UL);
 8000758:	687b      	ldr	r3, [r7, #4]
 800075a:	699b      	ldr	r3, [r3, #24]
 800075c:	f003 0310 	and.w	r3, r3, #16
 8000760:	2b10      	cmp	r3, #16
 8000762:	d101      	bne.n	8000768 <LL_I2C_IsActiveFlag_NACK+0x18>
 8000764:	2301      	movs	r3, #1
 8000766:	e000      	b.n	800076a <LL_I2C_IsActiveFlag_NACK+0x1a>
 8000768:	2300      	movs	r3, #0
}
 800076a:	4618      	mov	r0, r3
 800076c:	370c      	adds	r7, #12
 800076e:	46bd      	mov	sp, r7
 8000770:	f85d 7b04 	ldr.w	r7, [sp], #4
 8000774:	4770      	bx	lr

08000776 <LL_I2C_IsActiveFlag_STOP>:
  * @rmtoll ISR          STOPF         LL_I2C_IsActiveFlag_STOP
  * @param  I2Cx I2C Instance.
  * @retval State of bit (1 or 0).
  */
__STATIC_INLINE uint32_t LL_I2C_IsActiveFlag_STOP(const I2C_TypeDef *I2Cx)
{
 8000776:	b480      	push	{r7}
 8000778:	b083      	sub	sp, #12
 800077a:	af00      	add	r7, sp, #0
 800077c:	6078      	str	r0, [r7, #4]
  return ((READ_BIT(I2Cx->ISR, I2C_ISR_STOPF) == (I2C_ISR_STOPF)) ? 1UL : 0UL);
 800077e:	687b      	ldr	r3, [r7, #4]
 8000780:	699b      	ldr	r3, [r3, #24]
 8000782:	f003 0320 	and.w	r3, r3, #32
 8000786:	2b20      	cmp	r3, #32
 8000788:	d101      	bne.n	800078e <LL_I2C_IsActiveFlag_STOP+0x18>
 800078a:	2301      	movs	r3, #1
 800078c:	e000      	b.n	8000790 <LL_I2C_IsActiveFlag_STOP+0x1a>
 800078e:	2300      	movs	r3, #0
}
 8000790:	4618      	mov	r0, r3
 8000792:	370c      	adds	r7, #12
 8000794:	46bd      	mov	sp, r7
 8000796:	f85d 7b04 	ldr.w	r7, [sp], #4
 800079a:	4770      	bx	lr

0800079c <LL_I2C_IsActiveFlag_BERR>:
  * @rmtoll ISR          BERR          LL_I2C_IsActiveFlag_BERR
  * @param  I2Cx I2C Instance.
  * @retval State of bit (1 or 0).
  */
__STATIC_INLINE uint32_t LL_I2C_IsActiveFlag_BERR(const I2C_TypeDef *I2Cx)
{
 800079c:	b480      	push	{r7}
 800079e:	b083      	sub	sp, #12
 80007a0:	af00      	add	r7, sp, #0
 80007a2:	6078      	str	r0, [r7, #4]
  return ((READ_BIT(I2Cx->ISR, I2C_ISR_BERR) == (I2C_ISR_BERR)) ? 1UL : 0UL);
 80007a4:	687b      	ldr	r3, [r7, #4]
 80007a6:	699b      	ldr	r3, [r3, #24]
 80007a8:	f403 7380 	and.w	r3, r3, #256	; 0x100
 80007ac:	f5b3 7f80 	cmp.w	r3, #256	; 0x100
 80007b0:	d101      	bne.n	80007b6 <LL_I2C_IsActiveFlag_BERR+0x1a>
 80007b2:	2301      	movs	r3, #1
 80007b4:	e000      	b.n	80007b8 <LL_I2C_IsActiveFlag_BERR+0x1c>
 80007b6:	2300      	movs	r3, #0
}
 80007b8:	4618      	mov	r0, r3
 80007ba:	370c      	adds	r7, #12
 80007bc:	46bd      	mov	sp, r7
 80007be:	f85d 7b04 	ldr.w	r7, [sp], #4
 80007c2:	4770      	bx	lr

080007c4 <LL_I2C_IsActiveFlag_ARLO>:
  * @rmtoll ISR          ARLO          LL_I2C_IsActiveFlag_ARLO
  * @param  I2Cx I2C Instance.
  * @retval State of bit (1 or 0).
  */
__STATIC_INLINE uint32_t LL_I2C_IsActiveFlag_ARLO(const I2C_TypeDef *I2Cx)
{
 80007c4:	b480      	push	{r7}
 80007c6:	b083      	sub	sp, #12
 80007c8:	af00      	add	r7, sp, #0
 80007ca:	6078      	str	r0, [r7, #4]
  return ((READ_BIT(I2Cx->ISR, I2C_ISR_ARLO) == (I2C_ISR_ARLO)) ? 1UL : 0UL);
 80007cc:	687b      	ldr	r3, [r7, #4]
 80007ce:	699b      	ldr	r3, [r3, #24]
 80007d0:	f403 7300 	and.w	r3, r3, #512	; 0x200
 80007d4:	f5b3 7f00 	cmp.w	r3, #512	; 0x200
 80007d8:	d101      	bne.n	80007de <LL_I2C_IsActiveFlag_ARLO+0x1a>
 80007da:	2301      	movs	r3, #1
 80007dc:	e000      	b.n	80007e0 <LL_I2C_IsActiveFlag_ARLO+0x1c>
 80007de:	2300      	movs	r3, #0
}
 80007e0:	4618      	mov	r0, r3
 80007e2:	370c      	adds	r7, #12
 80007e4:	46bd      	mov	sp, r7
 80007e6:	f85d 7b04 	ldr.w	r7, [sp], #4
 80007ea:	4770      	bx	lr

080007ec <LL_I2C_IsActiveFlag_BUSY>:
  * @rmtoll ISR          BUSY          LL_I2C_IsActiveFlag_BUSY
  * @param  I2Cx I2C Instance.
  * @retval State of bit (1 or 0).
  */
__STATIC_INLINE uint32_t LL_I2C_IsActiveFlag_BUSY(const I2C_TypeDef *I2Cx)
{
 80007ec:	b480      	push	{r7}
 80007ee:	b083      	sub	sp, #12
 80007f0:	af00      	add	r7, sp, #0
 80007f2:	6078      	str	r0, [r7, #4]
  return ((READ_BIT(I2Cx->ISR, I2C_ISR_BUSY) == (I2C_ISR_BUSY)) ? 1UL : 0UL);
 80007f4:	687b      	ldr	r3, [r7, #4]
 80007f6:	699b      	ldr	r3, [r3, #24]
 80007f8:	f403 4300 	and.w	r3, r3, #32768	; 0x8000
 80007fc:	f5b3 4f00 	cmp.w	r3, #32768	; 0x8000
 8000800:	d101      	bne.n	8000806 <LL_I2C_IsActiveFlag_BUSY+0x1a>
 8000802:	2301      	movs	r3, #1
 8000804:	e000      	b.n	8000808 <LL_I2C_IsActiveFlag_BUSY+0x1c>
 8000806:	2300      	movs	r3, #0
}
 8000808:	4618      	mov	r0, r3
 800080a:	370c      	adds	r7, #12
 800080c:	46bd      	mov	sp, r7
 800080e:	f85d 7b04 	ldr.w	r7, [sp], #4
 8000812:	4770      	bx	lr

08000814 <LL_I2C_ClearFlag_NACK>:
  * @rmtoll ICR          NACKCF        LL_I2C_ClearFlag_NACK
  * @param  I2Cx I2C Instance.
  * @retval None
  */
__STATIC_INLINE void LL_I2C_ClearFlag_NACK(I2C_TypeDef *I2Cx)
{
 8000814:	b480      	push	{r7}
 8000816:	b083      	sub	sp, #12
 8000818:	af00      	add	r7, sp, #0
 800081a:	6078      	str	r0, [r7, #4]
  SET_BIT(I2Cx->ICR, I2C_ICR_NACKCF);
 800081c:	687b      	ldr	r3, [r7, #4]
 800081e:	69db      	ldr	r3, [r3, #28]
 8000820:	f043 0210 	orr.w	r2, r3, #16
 8000824:	687b      	ldr	r3, [r7, #4]
 8000826:	61da      	str	r2, [r3, #28]
}
 8000828:	bf00      	nop
 800082a:	370c      	adds	r7, #12
 800082c:	46bd      	mov	sp, r7
 800082e:	f85d 7b04 	ldr.w	r7, [sp], #4
 8000832:	4770      	bx	lr

08000834 <LL_I2C_ClearFlag_STOP>:
  * @rmtoll ICR          STOPCF        LL_I2C_ClearFlag_STOP
  * @param  I2Cx I2C Instance.
  * @retval None
  */
__STATIC_INLINE void LL_I2C_ClearFlag_STOP(I2C_TypeDef *I2Cx)
{
 8000834:	b480      	push	{r7}
 8000836:	b083      	sub	sp, #12
 8000838:	af00      	add	r7, sp, #0
 800083a:	6078      	str	r0, [r7, #4]
  SET_BIT(I2Cx->ICR, I2C_ICR_STOPCF);
 800083c:	687b      	ldr	r3, [r7, #4]
 800083e:	69db      	ldr	r3, [r3, #28]
 8000840:	f043 0220 	orr.w	r2, r3, #32
 8000844:	687b      	ldr	r3, [r7, #4]
 8000846:	61da      	str	r2, [r3, #28]
}
 8000848:	bf00      	nop
 800084a:	370c      	adds	r7, #12
 800084c:	46bd      	mov	sp, r7
 800084e:	f85d 7b04 	ldr.w	r7, [sp], #4
 8000852:	4770      	bx	lr

08000854 <LL_I2C_ClearFlag_BERR>:
  * @rmtoll ICR          BERRCF        LL_I2C_ClearFlag_BERR
  * @param  I2Cx I2C Instance.
  * @retval None
  */
__STATIC_INLINE void LL_I2C_ClearFlag_BERR(I2C_TypeDef *I2Cx)
{
 8000854:	b480      	push	{r7}
 8000856:	b083      	sub	sp, #12
 8000858:	af00      	add	r7, sp, #0
 800085a:	6078      	str	r0, [r7, #4]
  SET_BIT(I2Cx->ICR, I2C_ICR_BERRCF);
 800085c:	687b      	ldr	r3, [r7, #4]
 800085e:	69db      	ldr	r3, [r3, #28]
 8000860:	f443 7280 	orr.w	r2, r3, #256	; 0x100
 8000864:	687b      	ldr	r3, [r7, #4]
 8000866:	61da      	str	r2, [r3, #28]
}
 8000868:	bf00      	nop
 800086a:	370c      	adds	r7, #12
 800086c:	46bd      	mov	sp, r7
 800086e:	f85d 7b04 	ldr.w	r7, [sp], #4
 8000872:	4770      	bx	lr

08000874 <LL_I2C_ClearFlag_ARLO>:
  * @rmtoll ICR          ARLOCF        LL_I2C_ClearFlag_ARLO
  * @param  I2Cx I2C Instance.
  * @retval None
  */
__STATIC_INLINE void LL_I2C_ClearFlag_ARLO(I2C_TypeDef *I2Cx)
{
 8000874:	b480      	push	{r7}
 8000876:	b083      	sub	sp, #12
 8000878:	af00      	add	r7, sp, #0
 800087a:	6078      	str	r0, [r7, #4]
  SET_BIT(I2Cx->ICR, I2C_ICR_ARLOCF);
 800087c:	687b      	ldr	r3, [r7, #4]
 800087e:	69db      	ldr	r3, [r3, #28]
 8000880:	f443 7200 	orr.w	r2, r3, #512	; 0x200
 8000884:	687b      	ldr	r3, [r7, #4]
 8000886:	61da      	str	r2, [r3, #28]
}
 8000888:	bf00      	nop
 800088a:	370c      	adds	r7, #12
 800088c:	46bd      	mov	sp, r7
 800088e:	f85d 7b04 	ldr.w	r7, [sp], #4
 8000892:	4770      	bx	lr

08000894 <LL_I2C_EnableAutoEndMode>:
  * @rmtoll CR2          AUTOEND       LL_I2C_EnableAutoEndMode
  * @param  I2Cx I2C Instance.
  * @retval None
  */
__STATIC_INLINE void LL_I2C_EnableAutoEndMode(I2C_TypeDef *I2Cx)
{
 8000894:	b480      	push	{r7}
 8000896:	b083      	sub	sp, #12
 8000898:	af00      	add	r7, sp, #0
 800089a:	6078      	str	r0, [r7, #4]
  SET_BIT(I2Cx->CR2, I2C_CR2_AUTOEND);
 800089c:	687b      	ldr	r3, [r7, #4]
 800089e:	685b      	ldr	r3, [r3, #4]
 80008a0:	f043 7200 	orr.w	r2, r3, #33554432	; 0x2000000
 80008a4:	687b      	ldr	r3, [r7, #4]
 80008a6:	605a      	str	r2, [r3, #4]
}
 80008a8:	bf00      	nop
 80008aa:	370c      	adds	r7, #12
 80008ac:	46bd      	mov	sp, r7
 80008ae:	f85d 7b04 	ldr.w	r7, [sp], #4
 80008b2:	4770      	bx	lr

080008b4 <LL_I2C_AcknowledgeNextData>:
  *         @arg @ref LL_I2C_ACK
  *         @arg @ref LL_I2C_NACK
  * @retval None
  */
__STATIC_INLINE void LL_I2C_AcknowledgeNextData(I2C_TypeDef *I2Cx, uint32_t TypeAcknowledge)
{
 80008b4:	b480      	push	{r7}
 80008b6:	b083      	sub	sp, #12
 80008b8:	af00      	add	r7, sp, #0
 80008ba:	6078      	str	r0, [r7, #4]
 80008bc:	6039      	str	r1, [r7, #0]
  MODIFY_REG(I2Cx->CR2, I2C_CR2_NACK, TypeAcknowledge);
 80008be:	687b      	ldr	r3, [r7, #4]
 80008c0:	685b      	ldr	r3, [r3, #4]
 80008c2:	f423 4200 	bic.w	r2, r3, #32768	; 0x8000
 80008c6:	683b      	ldr	r3, [r7, #0]
 80008c8:	431a      	orrs	r2, r3
 80008ca:	687b      	ldr	r3, [r7, #4]
 80008cc:	605a      	str	r2, [r3, #4]
}
 80008ce:	bf00      	nop
 80008d0:	370c      	adds	r7, #12
 80008d2:	46bd      	mov	sp, r7
 80008d4:	f85d 7b04 	ldr.w	r7, [sp], #4
 80008d8:	4770      	bx	lr
	...

080008dc <LL_I2C_HandleTransfer>:
  *         @arg @ref LL_I2C_GENERATE_RESTART_10BIT_WRITE
  * @retval None
  */
__STATIC_INLINE void LL_I2C_HandleTransfer(I2C_TypeDef *I2Cx, uint32_t SlaveAddr, uint32_t SlaveAddrSize,
                                           uint32_t TransferSize, uint32_t EndMode, uint32_t Request)
{
 80008dc:	b480      	push	{r7}
 80008de:	b087      	sub	sp, #28
 80008e0:	af00      	add	r7, sp, #0
 80008e2:	60f8      	str	r0, [r7, #12]
 80008e4:	60b9      	str	r1, [r7, #8]
 80008e6:	607a      	str	r2, [r7, #4]
 80008e8:	603b      	str	r3, [r7, #0]
  /* Declaration of tmp to prevent undefined behavior of volatile usage */
  uint32_t tmp = ((uint32_t)(((uint32_t)SlaveAddr & I2C_CR2_SADD) | \
 80008ea:	68bb      	ldr	r3, [r7, #8]
 80008ec:	f3c3 0209 	ubfx	r2, r3, #0, #10
                             ((uint32_t)SlaveAddrSize & I2C_CR2_ADD10) | \
 80008f0:	687b      	ldr	r3, [r7, #4]
 80008f2:	f403 6300 	and.w	r3, r3, #2048	; 0x800
  uint32_t tmp = ((uint32_t)(((uint32_t)SlaveAddr & I2C_CR2_SADD) | \
 80008f6:	431a      	orrs	r2, r3
                             (((uint32_t)TransferSize << I2C_CR2_NBYTES_Pos) & I2C_CR2_NBYTES) | \
 80008f8:	683b      	ldr	r3, [r7, #0]
 80008fa:	041b      	lsls	r3, r3, #16
 80008fc:	f403 037f 	and.w	r3, r3, #16711680	; 0xff0000
                             ((uint32_t)SlaveAddrSize & I2C_CR2_ADD10) | \
 8000900:	431a      	orrs	r2, r3
                             (((uint32_t)TransferSize << I2C_CR2_NBYTES_Pos) & I2C_CR2_NBYTES) | \
 8000902:	6a3b      	ldr	r3, [r7, #32]
 8000904:	431a      	orrs	r2, r3
  uint32_t tmp = ((uint32_t)(((uint32_t)SlaveAddr & I2C_CR2_SADD) | \
 8000906:	6a7b      	ldr	r3, [r7, #36]	; 0x24
 8000908:	4313      	orrs	r3, r2
 800090a:	f023 4300 	bic.w	r3, r3, #2147483648	; 0x80000000
 800090e:	617b      	str	r3, [r7, #20]
                             (uint32_t)EndMode | (uint32_t)Request) & (~0x80000000U));

  /* update CR2 register */
  MODIFY_REG(I2Cx->CR2, I2C_CR2_SADD | I2C_CR2_ADD10 |
 8000910:	68fb      	ldr	r3, [r7, #12]
 8000912:	685a      	ldr	r2, [r3, #4]
 8000914:	6a7b      	ldr	r3, [r7, #36]	; 0x24
 8000916:	0d5b      	lsrs	r3, r3, #21
 8000918:	f403 6180 	and.w	r1, r3, #1024	; 0x400
 800091c:	4b06      	ldr	r3, [pc, #24]	; (8000938 <LL_I2C_HandleTransfer+0x5c>)
 800091e:	430b      	orrs	r3, r1
 8000920:	43db      	mvns	r3, r3
 8000922:	401a      	ands	r2, r3
 8000924:	697b      	ldr	r3, [r7, #20]
 8000926:	431a      	orrs	r2, r3
 8000928:	68fb      	ldr	r3, [r7, #12]
 800092a:	605a      	str	r2, [r3, #4]
             (I2C_CR2_RD_WRN & (uint32_t)(Request >> (31U - I2C_CR2_RD_WRN_Pos))) |
             I2C_CR2_START | I2C_CR2_STOP | I2C_CR2_RELOAD |
             I2C_CR2_NBYTES | I2C_CR2_AUTOEND | I2C_CR2_HEAD10R,
             tmp);
}
 800092c:	bf00      	nop
 800092e:	371c      	adds	r7, #28
 8000930:	46bd      	mov	sp, r7
 8000932:	f85d 7b04 	ldr.w	r7, [sp], #4
 8000936:	4770      	bx	lr
 8000938:	03ff7bff 	.word	0x03ff7bff

0800093c <LL_I2C_TransmitData8>:
  * @param  I2Cx I2C Instance.
  * @param  Data Value between Min_Data=0x00 and Max_Data=0xFF
  * @retval None
  */
__STATIC_INLINE void LL_I2C_TransmitData8(I2C_TypeDef *I2Cx, uint8_t Data)
{
 800093c:	b480      	push	{r7}
 800093e:	b083      	sub	sp, #12
 8000940:	af00      	add	r7, sp, #0
 8000942:	6078      	str	r0, [r7, #4]
 8000944:	460b      	mov	r3, r1
 8000946:	70fb      	strb	r3, [r7, #3]
  WRITE_REG(I2Cx->TXDR, Data);
 8000948:	78fa      	ldrb	r2, [r7, #3]
 800094a:	687b      	ldr	r3, [r7, #4]
 800094c:	629a      	str	r2, [r3, #40]	; 0x28
}
 800094e:	bf00      	nop
 8000950:	370c      	adds	r7, #12
 8000952:	46bd      	mov	sp, r7
 8000954:	f85d 7b04 	ldr.w	r7, [sp], #4
 8000958:	4770      	bx	lr

0800095a <LL_USART_Enable>:
  * @rmtoll CR1          UE            LL_USART_Enable
  * @param  USARTx USART Instance
  * @retval None
  */
__STATIC_INLINE void LL_USART_Enable(USART_TypeDef *USARTx)
{
 800095a:	b480      	push	{r7}
 800095c:	b083      	sub	sp, #12
 800095e:	af00      	add	r7, sp, #0
 8000960:	6078      	str	r0, [r7, #4]
  SET_BIT(USARTx->CR1, USART_CR1_UE);
 8000962:	687b      	ldr	r3, [r7, #4]
 8000964:	681b      	ldr	r3, [r3, #0]
 8000966:	f043 0201 	orr.w	r2, r3, #1
 800096a:	687b      	ldr	r3, [r7, #4]
 800096c:	601a      	str	r2, [r3, #0]
}
 800096e:	bf00      	nop
 8000970:	370c      	adds	r7, #12
 8000972:	46bd      	mov	sp, r7
 8000974:	f85d 7b04 	ldr.w	r7, [sp], #4
 8000978:	4770      	bx	lr

0800097a <LL_USART_Disable>:
  * @rmtoll CR1          UE            LL_USART_Disable
  * @param  USARTx USART Instance
  * @retval None
  */
__STATIC_INLINE void LL_USART_Disable(USART_TypeDef *USARTx)
{
 800097a:	b480      	push	{r7}
 800097c:	b083      	sub	sp, #12
 800097e:	af00      	add	r7, sp, #0
 8000980:	6078      	str	r0, [r7, #4]
  CLEAR_BIT(USARTx->CR1, USART_CR1_UE);
 8000982:	687b      	ldr	r3, [r7, #4]
 8000984:	681b      	ldr	r3, [r3, #0]
 8000986:	f023 0201 	bic.w	r2, r3, #1
 800098a:	687b      	ldr	r3, [r7, #4]
 800098c:	601a      	str	r2, [r3, #0]
}
 800098e:	bf00      	nop
 8000990:	370c      	adds	r7, #12
 8000992:	46bd      	mov	sp, r7
 8000994:	f85d 7b04 	ldr.w	r7, [sp], #4
 8000998:	4770      	bx	lr

0800099a <LL_USART_SetTransferDirection>:
  *         @arg @ref LL_USART_DIRECTION_TX
  *         @arg @ref LL_USART_DIRECTION_TX_RX
  * @retval None
  */
__STATIC_INLINE void LL_USART_SetTransferDirection(USART_TypeDef *USARTx, uint32_t TransferDirection)
{
 800099a:	b480      	push	{r7}
 800099c:	b089      	sub	sp, #36	; 0x24
 800099e:	af00      	add	r7, sp, #0
 80009a0:	6078      	str	r0, [r7, #4]
 80009a2:	6039      	str	r1, [r7, #0]
  ATOMIC_MODIFY_REG(USARTx->CR1, USART_CR1_RE | USART_CR1_TE, TransferDirection);
 80009a4:	687b      	ldr	r3, [r7, #4]
 80009a6:	60fb      	str	r3, [r7, #12]
 */
__STATIC_FORCEINLINE uint32_t __LDREXW(volatile uint32_t *addr)
{
    uint32_t result;

   __ASM volatile ("ldrex %0, %1" : "=r" (result) : "Q" (*addr) );
 80009a8:	68fb      	ldr	r3, [r7, #12]
 80009aa:	e853 3f00 	ldrex	r3, [r3]
 80009ae:	60bb      	str	r3, [r7, #8]
   return(result);
 80009b0:	68bb      	ldr	r3, [r7, #8]
 80009b2:	f023 030c 	bic.w	r3, r3, #12
 80009b6:	683a      	ldr	r2, [r7, #0]
 80009b8:	4313      	orrs	r3, r2
 80009ba:	61fb      	str	r3, [r7, #28]
 80009bc:	687b      	ldr	r3, [r7, #4]
 80009be:	69fa      	ldr	r2, [r7, #28]
 80009c0:	61ba      	str	r2, [r7, #24]
 80009c2:	617b      	str	r3, [r7, #20]
 */
__STATIC_FORCEINLINE uint32_t __STREXW(uint32_t value, volatile uint32_t *addr)
{
   uint32_t result;

   __ASM volatile ("strex %0, %2, %1" : "=&r" (result), "=Q" (*addr) : "r" (value) );
 80009c4:	6979      	ldr	r1, [r7, #20]
 80009c6:	69ba      	ldr	r2, [r7, #24]
 80009c8:	e841 2300 	strex	r3, r2, [r1]
 80009cc:	613b      	str	r3, [r7, #16]
   return(result);
 80009ce:	693b      	ldr	r3, [r7, #16]
 80009d0:	2b00      	cmp	r3, #0
 80009d2:	d1e7      	bne.n	80009a4 <LL_USART_SetTransferDirection+0xa>
}
 80009d4:	bf00      	nop
 80009d6:	bf00      	nop
 80009d8:	3724      	adds	r7, #36	; 0x24
 80009da:	46bd      	mov	sp, r7
 80009dc:	f85d 7b04 	ldr.w	r7, [sp], #4
 80009e0:	4770      	bx	lr

080009e2 <LL_USART_SetOverSampling>:
  *         @arg @ref LL_USART_OVERSAMPLING_16
  *         @arg @ref LL_USART_OVERSAMPLING_8
  * @retval None
  */
__STATIC_INLINE void LL_USART_SetOverSampling(USART_TypeDef *USARTx, uint32_t OverSampling)
{
 80009e2:	b480      	push	{r7}
 80009e4:	b083      	sub	sp, #12
 80009e6:	af00      	add	r7, sp, #0
 80009e8:	6078      	str	r0, [r7, #4]
 80009ea:	6039      	str	r1, [r7, #0]
  MODIFY_REG(USARTx->CR1, USART_CR1_OVER8, OverSampling);
 80009ec:	687b      	ldr	r3, [r7, #4]
 80009ee:	681b      	ldr	r3, [r3, #0]
 80009f0:	f423 4200 	bic.w	r2, r3, #32768	; 0x8000
 80009f4:	683b      	ldr	r3, [r7, #0]
 80009f6:	431a      	orrs	r2, r3
 80009f8:	687b      	ldr	r3, [r7, #4]
 80009fa:	601a      	str	r2, [r3, #0]
}
 80009fc:	bf00      	nop
 80009fe:	370c      	adds	r7, #12
 8000a00:	46bd      	mov	sp, r7
 8000a02:	f85d 7b04 	ldr.w	r7, [sp], #4
 8000a06:	4770      	bx	lr

08000a08 <LL_USART_SetPrescaler>:
  *         @arg @ref LL_USART_PRESCALER_DIV128
  *         @arg @ref LL_USART_PRESCALER_DIV256
  * @retval None
  */
__STATIC_INLINE void LL_USART_SetPrescaler(USART_TypeDef *USARTx, uint32_t PrescalerValue)
{
 8000a08:	b480      	push	{r7}
 8000a0a:	b083      	sub	sp, #12
 8000a0c:	af00      	add	r7, sp, #0
 8000a0e:	6078      	str	r0, [r7, #4]
 8000a10:	6039      	str	r1, [r7, #0]
  MODIFY_REG(USARTx->PRESC, USART_PRESC_PRESCALER, (uint16_t)PrescalerValue);
 8000a12:	687b      	ldr	r3, [r7, #4]
 8000a14:	6adb      	ldr	r3, [r3, #44]	; 0x2c
 8000a16:	f023 030f 	bic.w	r3, r3, #15
 8000a1a:	683a      	ldr	r2, [r7, #0]
 8000a1c:	b292      	uxth	r2, r2
 8000a1e:	431a      	orrs	r2, r3
 8000a20:	687b      	ldr	r3, [r7, #4]
 8000a22:	62da      	str	r2, [r3, #44]	; 0x2c
}
 8000a24:	bf00      	nop
 8000a26:	370c      	adds	r7, #12
 8000a28:	46bd      	mov	sp, r7
 8000a2a:	f85d 7b04 	ldr.w	r7, [sp], #4
 8000a2e:	4770      	bx	lr

08000a30 <LL_USART_ConfigCharacter>:
  *         @arg @ref LL_USART_STOPBITS_2
  * @retval None
  */
__STATIC_INLINE void LL_USART_ConfigCharacter(USART_TypeDef *USARTx, uint32_t DataWidth, uint32_t Parity,
                                              uint32_t StopBits)
{
 8000a30:	b480      	push	{r7}
 8000a32:	b085      	sub	sp, #20
 8000a34:	af00      	add	r7, sp, #0
 8000a36:	60f8      	str	r0, [r7, #12]
 8000a38:	60b9      	str	r1, [r7, #8]
 8000a3a:	607a      	str	r2, [r7, #4]
 8000a3c:	603b      	str	r3, [r7, #0]
  MODIFY_REG(USARTx->CR1, USART_CR1_PS | USART_CR1_PCE | USART_CR1_M, Parity | DataWidth);
 8000a3e:	68fb      	ldr	r3, [r7, #12]
 8000a40:	681b      	ldr	r3, [r3, #0]
 8000a42:	f023 5380 	bic.w	r3, r3, #268435456	; 0x10000000
 8000a46:	f423 53b0 	bic.w	r3, r3, #5632	; 0x1600
 8000a4a:	6879      	ldr	r1, [r7, #4]
 8000a4c:	68ba      	ldr	r2, [r7, #8]
 8000a4e:	430a      	orrs	r2, r1
 8000a50:	431a      	orrs	r2, r3
 8000a52:	68fb      	ldr	r3, [r7, #12]
 8000a54:	601a      	str	r2, [r3, #0]
  MODIFY_REG(USARTx->CR2, USART_CR2_STOP, StopBits);
 8000a56:	68fb      	ldr	r3, [r7, #12]
 8000a58:	685b      	ldr	r3, [r3, #4]
 8000a5a:	f423 5240 	bic.w	r2, r3, #12288	; 0x3000
 8000a5e:	683b      	ldr	r3, [r7, #0]
 8000a60:	431a      	orrs	r2, r3
 8000a62:	68fb      	ldr	r3, [r7, #12]
 8000a64:	605a      	str	r2, [r3, #4]
}
 8000a66:	bf00      	nop
 8000a68:	3714      	adds	r7, #20
 8000a6a:	46bd      	mov	sp, r7
 8000a6c:	f85d 7b04 	ldr.w	r7, [sp], #4
 8000a70:	4770      	bx	lr

08000a72 <LL_USART_SetHWFlowCtrl>:
  *         @arg @ref LL_USART_HWCONTROL_CTS
  *         @arg @ref LL_USART_HWCONTROL_RTS_CTS
  * @retval None
  */
__STATIC_INLINE void LL_USART_SetHWFlowCtrl(USART_TypeDef *USARTx, uint32_t HardwareFlowControl)
{
 8000a72:	b480      	push	{r7}
 8000a74:	b083      	sub	sp, #12
 8000a76:	af00      	add	r7, sp, #0
 8000a78:	6078      	str	r0, [r7, #4]
 8000a7a:	6039      	str	r1, [r7, #0]
  MODIFY_REG(USARTx->CR3, USART_CR3_RTSE | USART_CR3_CTSE, HardwareFlowControl);
 8000a7c:	687b      	ldr	r3, [r7, #4]
 8000a7e:	689b      	ldr	r3, [r3, #8]
 8000a80:	f423 7240 	bic.w	r2, r3, #768	; 0x300
 8000a84:	683b      	ldr	r3, [r7, #0]
 8000a86:	431a      	orrs	r2, r3
 8000a88:	687b      	ldr	r3, [r7, #4]
 8000a8a:	609a      	str	r2, [r3, #8]
}
 8000a8c:	bf00      	nop
 8000a8e:	370c      	adds	r7, #12
 8000a90:	46bd      	mov	sp, r7
 8000a92:	f85d 7b04 	ldr.w	r7, [sp], #4
 8000a96:	4770      	bx	lr

08000a98 <LL_USART_SetBaudRate>:
  * @retval None
  */
__STATIC_INLINE void LL_USART_SetBaudRate(USART_TypeDef *USARTx, uint32_t PeriphClk, uint32_t PrescalerValue,
                                          uint32_t OverSampling,
                                          uint32_t BaudRate)
{
 8000a98:	b480      	push	{r7}
 8000a9a:	b087      	sub	sp, #28
 8000a9c:	af00      	add	r7, sp, #0
 8000a9e:	60f8      	str	r0, [r7, #12]
 8000aa0:	60b9      	str	r1, [r7, #8]
 8000aa2:	607a      	str	r2, [r7, #4]
 8000aa4:	603b      	str	r3, [r7, #0]
  uint32_t usartdiv;
  uint32_t brrtemp;

  if (PrescalerValue > LL_USART_PRESCALER_DIV256)
 8000aa6:	687b      	ldr	r3, [r7, #4]
 8000aa8:	2b0b      	cmp	r3, #11
 8000aaa:	d83c      	bhi.n	8000b26 <LL_USART_SetBaudRate+0x8e>
  {
    /* Do not overstep the size of USART_PRESCALER_TAB */
  }
  else if (BaudRate == 0U)
 8000aac:	6a3b      	ldr	r3, [r7, #32]
 8000aae:	2b00      	cmp	r3, #0
 8000ab0:	d039      	beq.n	8000b26 <LL_USART_SetBaudRate+0x8e>
  {
    /* Can Not divide per 0 */
  }
  else if (OverSampling == LL_USART_OVERSAMPLING_8)
 8000ab2:	683b      	ldr	r3, [r7, #0]
 8000ab4:	f5b3 4f00 	cmp.w	r3, #32768	; 0x8000
 8000ab8:	d122      	bne.n	8000b00 <LL_USART_SetBaudRate+0x68>
  {
    usartdiv = (uint16_t)(__LL_USART_DIV_SAMPLING8(PeriphClk, (uint8_t)PrescalerValue, BaudRate));
 8000aba:	687b      	ldr	r3, [r7, #4]
 8000abc:	b2db      	uxtb	r3, r3
 8000abe:	461a      	mov	r2, r3
 8000ac0:	4b1c      	ldr	r3, [pc, #112]	; (8000b34 <LL_USART_SetBaudRate+0x9c>)
 8000ac2:	f853 3022 	ldr.w	r3, [r3, r2, lsl #2]
 8000ac6:	68ba      	ldr	r2, [r7, #8]
 8000ac8:	fbb2 f3f3 	udiv	r3, r2, r3
 8000acc:	005a      	lsls	r2, r3, #1
 8000ace:	6a3b      	ldr	r3, [r7, #32]
 8000ad0:	085b      	lsrs	r3, r3, #1
 8000ad2:	441a      	add	r2, r3
 8000ad4:	6a3b      	ldr	r3, [r7, #32]
 8000ad6:	fbb2 f3f3 	udiv	r3, r2, r3
 8000ada:	b29b      	uxth	r3, r3
 8000adc:	617b      	str	r3, [r7, #20]
    brrtemp = usartdiv & 0xFFF0U;
 8000ade:	697a      	ldr	r2, [r7, #20]
 8000ae0:	f64f 73f0 	movw	r3, #65520	; 0xfff0
 8000ae4:	4013      	ands	r3, r2
 8000ae6:	613b      	str	r3, [r7, #16]
    brrtemp |= (uint16_t)((usartdiv & (uint16_t)0x000FU) >> 1U);
 8000ae8:	697b      	ldr	r3, [r7, #20]
 8000aea:	085b      	lsrs	r3, r3, #1
 8000aec:	b29b      	uxth	r3, r3
 8000aee:	f003 0307 	and.w	r3, r3, #7
 8000af2:	693a      	ldr	r2, [r7, #16]
 8000af4:	4313      	orrs	r3, r2
 8000af6:	613b      	str	r3, [r7, #16]
    USARTx->BRR = brrtemp;
 8000af8:	68fb      	ldr	r3, [r7, #12]
 8000afa:	693a      	ldr	r2, [r7, #16]
 8000afc:	60da      	str	r2, [r3, #12]
  }
  else
  {
    USARTx->BRR = (uint16_t)(__LL_USART_DIV_SAMPLING16(PeriphClk, (uint8_t)PrescalerValue, BaudRate));
  }
}
 8000afe:	e012      	b.n	8000b26 <LL_USART_SetBaudRate+0x8e>
    USARTx->BRR = (uint16_t)(__LL_USART_DIV_SAMPLING16(PeriphClk, (uint8_t)PrescalerValue, BaudRate));
 8000b00:	687b      	ldr	r3, [r7, #4]
 8000b02:	b2db      	uxtb	r3, r3
 8000b04:	461a      	mov	r2, r3
 8000b06:	4b0b      	ldr	r3, [pc, #44]	; (8000b34 <LL_USART_SetBaudRate+0x9c>)
 8000b08:	f853 3022 	ldr.w	r3, [r3, r2, lsl #2]
 8000b0c:	68ba      	ldr	r2, [r7, #8]
 8000b0e:	fbb2 f2f3 	udiv	r2, r2, r3
 8000b12:	6a3b      	ldr	r3, [r7, #32]
 8000b14:	085b      	lsrs	r3, r3, #1
 8000b16:	441a      	add	r2, r3
 8000b18:	6a3b      	ldr	r3, [r7, #32]
 8000b1a:	fbb2 f3f3 	udiv	r3, r2, r3
 8000b1e:	b29b      	uxth	r3, r3
 8000b20:	461a      	mov	r2, r3
 8000b22:	68fb      	ldr	r3, [r7, #12]
 8000b24:	60da      	str	r2, [r3, #12]
}
 8000b26:	bf00      	nop
 8000b28:	371c      	adds	r7, #28
 8000b2a:	46bd      	mov	sp, r7
 8000b2c:	f85d 7b04 	ldr.w	r7, [sp], #4
 8000b30:	4770      	bx	lr
 8000b32:	bf00      	nop
 8000b34:	08002aec 	.word	0x08002aec

08000b38 <LL_USART_TransmitData8>:
  * @param  USARTx USART Instance
  * @param  Value between Min_Data=0x00 and Max_Data=0xFF
  * @retval None
  */
__STATIC_INLINE void LL_USART_TransmitData8(USART_TypeDef *USARTx, uint8_t Value)
{
 8000b38:	b480      	push	{r7}
 8000b3a:	b083      	sub	sp, #12
 8000b3c:	af00      	add	r7, sp, #0
 8000b3e:	6078      	str	r0, [r7, #4]
 8000b40:	460b      	mov	r3, r1
 8000b42:	70fb      	strb	r3, [r7, #3]
  USARTx->TDR = Value;
 8000b44:	78fa      	ldrb	r2, [r7, #3]
 8000b46:	687b      	ldr	r3, [r7, #4]
 8000b48:	629a      	str	r2, [r3, #40]	; 0x28
}
 8000b4a:	bf00      	nop
 8000b4c:	370c      	adds	r7, #12
 8000b4e:	46bd      	mov	sp, r7
 8000b50:	f85d 7b04 	ldr.w	r7, [sp], #4
 8000b54:	4770      	bx	lr

08000b56 <DDR5_GPIO_Init_Output>:
static void DDR5_GPIO_Init_Output(GPIO_TypeDef *port,
                                  uint32_t pin,
                                  uint32_t output_type,
                                  uint32_t speed,
                                  uint32_t pull)
{
 8000b56:	b580      	push	{r7, lr}
 8000b58:	b084      	sub	sp, #16
 8000b5a:	af00      	add	r7, sp, #0
 8000b5c:	60f8      	str	r0, [r7, #12]
 8000b5e:	60b9      	str	r1, [r7, #8]
 8000b60:	607a      	str	r2, [r7, #4]
 8000b62:	603b      	str	r3, [r7, #0]
    LL_GPIO_SetPinMode(port, pin, LL_GPIO_MODE_OUTPUT);
 8000b64:	2201      	movs	r2, #1
 8000b66:	68b9      	ldr	r1, [r7, #8]
 8000b68:	68f8      	ldr	r0, [r7, #12]
 8000b6a:	f7ff fbc7 	bl	80002fc <LL_GPIO_SetPinMode>
    LL_GPIO_SetPinOutputType(port, pin, output_type);
 8000b6e:	687a      	ldr	r2, [r7, #4]
 8000b70:	68b9      	ldr	r1, [r7, #8]
 8000b72:	68f8      	ldr	r0, [r7, #12]
 8000b74:	f7ff fbff 	bl	8000376 <LL_GPIO_SetPinOutputType>
    LL_GPIO_SetPinSpeed(port, pin, speed);
 8000b78:	683a      	ldr	r2, [r7, #0]
 8000b7a:	68b9      	ldr	r1, [r7, #8]
 8000b7c:	68f8      	ldr	r0, [r7, #12]
 8000b7e:	f7ff fc12 	bl	80003a6 <LL_GPIO_SetPinSpeed>
    LL_GPIO_SetPinPull(port, pin, pull);
 8000b82:	69ba      	ldr	r2, [r7, #24]
 8000b84:	68b9      	ldr	r1, [r7, #8]
 8000b86:	68f8      	ldr	r0, [r7, #12]
 8000b88:	f7ff fc4a 	bl	8000420 <LL_GPIO_SetPinPull>
}
 8000b8c:	bf00      	nop
 8000b8e:	3710      	adds	r7, #16
 8000b90:	46bd      	mov	sp, r7
 8000b92:	bd80      	pop	{r7, pc}

08000b94 <DDR5_GPIO_Init_Input>:

static void DDR5_GPIO_Init_Input(GPIO_TypeDef *port,
                                 uint32_t pin,
                                 uint32_t pull)
{
 8000b94:	b580      	push	{r7, lr}
 8000b96:	b084      	sub	sp, #16
 8000b98:	af00      	add	r7, sp, #0
 8000b9a:	60f8      	str	r0, [r7, #12]
 8000b9c:	60b9      	str	r1, [r7, #8]
 8000b9e:	607a      	str	r2, [r7, #4]
    LL_GPIO_SetPinMode(port, pin, LL_GPIO_MODE_INPUT);
 8000ba0:	2200      	movs	r2, #0
 8000ba2:	68b9      	ldr	r1, [r7, #8]
 8000ba4:	68f8      	ldr	r0, [r7, #12]
 8000ba6:	f7ff fba9 	bl	80002fc <LL_GPIO_SetPinMode>
    LL_GPIO_SetPinPull(port, pin, pull);
 8000baa:	687a      	ldr	r2, [r7, #4]
 8000bac:	68b9      	ldr	r1, [r7, #8]
 8000bae:	68f8      	ldr	r0, [r7, #12]
 8000bb0:	f7ff fc36 	bl	8000420 <LL_GPIO_SetPinPull>
}
 8000bb4:	bf00      	nop
 8000bb6:	3710      	adds	r7, #16
 8000bb8:	46bd      	mov	sp, r7
 8000bba:	bd80      	pop	{r7, pc}

08000bbc <DDR5_GPIO_IsLowPin>:

static uint32_t DDR5_GPIO_IsLowPin(uint32_t pin)
{
 8000bbc:	b480      	push	{r7}
 8000bbe:	b083      	sub	sp, #12
 8000bc0:	af00      	add	r7, sp, #0
 8000bc2:	6078      	str	r0, [r7, #4]
    return ((pin & 0x00FFU) != 0U);
 8000bc4:	687b      	ldr	r3, [r7, #4]
 8000bc6:	b2db      	uxtb	r3, r3
 8000bc8:	2b00      	cmp	r3, #0
 8000bca:	bf14      	ite	ne
 8000bcc:	2301      	movne	r3, #1
 8000bce:	2300      	moveq	r3, #0
 8000bd0:	b2db      	uxtb	r3, r3
}
 8000bd2:	4618      	mov	r0, r3
 8000bd4:	370c      	adds	r7, #12
 8000bd6:	46bd      	mov	sp, r7
 8000bd8:	f85d 7b04 	ldr.w	r7, [sp], #4
 8000bdc:	4770      	bx	lr

08000bde <DDR5_GPIO_Init_AF>:
                              uint32_t pin,
                              uint32_t af,
                              uint32_t output_type,
                              uint32_t speed,
                              uint32_t pull)
{
 8000bde:	b580      	push	{r7, lr}
 8000be0:	b084      	sub	sp, #16
 8000be2:	af00      	add	r7, sp, #0
 8000be4:	60f8      	str	r0, [r7, #12]
 8000be6:	60b9      	str	r1, [r7, #8]
 8000be8:	607a      	str	r2, [r7, #4]
 8000bea:	603b      	str	r3, [r7, #0]
    LL_GPIO_SetPinMode(port, pin, LL_GPIO_MODE_ALTERNATE);
 8000bec:	2202      	movs	r2, #2
 8000bee:	68b9      	ldr	r1, [r7, #8]
 8000bf0:	68f8      	ldr	r0, [r7, #12]
 8000bf2:	f7ff fb83 	bl	80002fc <LL_GPIO_SetPinMode>
    LL_GPIO_SetPinOutputType(port, pin, output_type);
 8000bf6:	683a      	ldr	r2, [r7, #0]
 8000bf8:	68b9      	ldr	r1, [r7, #8]
 8000bfa:	68f8      	ldr	r0, [r7, #12]
 8000bfc:	f7ff fbbb 	bl	8000376 <LL_GPIO_SetPinOutputType>
    LL_GPIO_SetPinSpeed(port, pin, speed);
 8000c00:	69ba      	ldr	r2, [r7, #24]
 8000c02:	68b9      	ldr	r1, [r7, #8]
 8000c04:	68f8      	ldr	r0, [r7, #12]
 8000c06:	f7ff fbce 	bl	80003a6 <LL_GPIO_SetPinSpeed>
    LL_GPIO_SetPinPull(port, pin, pull);
 8000c0a:	69fa      	ldr	r2, [r7, #28]
 8000c0c:	68b9      	ldr	r1, [r7, #8]
 8000c0e:	68f8      	ldr	r0, [r7, #12]
 8000c10:	f7ff fc06 	bl	8000420 <LL_GPIO_SetPinPull>

    if (DDR5_GPIO_IsLowPin(pin))
 8000c14:	68b8      	ldr	r0, [r7, #8]
 8000c16:	f7ff ffd1 	bl	8000bbc <DDR5_GPIO_IsLowPin>
 8000c1a:	4603      	mov	r3, r0
 8000c1c:	2b00      	cmp	r3, #0
 8000c1e:	d005      	beq.n	8000c2c <DDR5_GPIO_Init_AF+0x4e>
    {
        LL_GPIO_SetAFPin_0_7(port, pin, af);
 8000c20:	687a      	ldr	r2, [r7, #4]
 8000c22:	68b9      	ldr	r1, [r7, #8]
 8000c24:	68f8      	ldr	r0, [r7, #12]
 8000c26:	f7ff fc38 	bl	800049a <LL_GPIO_SetAFPin_0_7>
    }
    else
    {
        LL_GPIO_SetAFPin_8_15(port, pin, af);
    }
}
 8000c2a:	e004      	b.n	8000c36 <DDR5_GPIO_Init_AF+0x58>
        LL_GPIO_SetAFPin_8_15(port, pin, af);
 8000c2c:	687a      	ldr	r2, [r7, #4]
 8000c2e:	68b9      	ldr	r1, [r7, #8]
 8000c30:	68f8      	ldr	r0, [r7, #12]
 8000c32:	f7ff fc6f 	bl	8000514 <LL_GPIO_SetAFPin_8_15>
}
 8000c36:	bf00      	nop
 8000c38:	3710      	adds	r7, #16
 8000c3a:	46bd      	mov	sp, r7
 8000c3c:	bd80      	pop	{r7, pc}
	...

08000c40 <DDR5_GPIO_Init>:

/* --------------------------------------------------------------------------
 * Public GPIO init
 * -------------------------------------------------------------------------- */
void DDR5_GPIO_Init(void)
{
 8000c40:	b580      	push	{r7, lr}
 8000c42:	b082      	sub	sp, #8
 8000c44:	af02      	add	r7, sp, #8
    /* Enable GPIO peripheral clocks */
    DDR5_GPIO_ClocksEnable();
 8000c46:	f7ff fcc0 	bl	80005ca <DDR5_GPIO_ClocksEnable>
    /* =========================================================
     * Safe output states BEFORE configuring pins as outputs
     * ========================================================= */

    /* EN_x default OFF */
    LL_GPIO_ResetOutputPin(EN_0_PORT, EN_0_PIN);
 8000c4a:	2101      	movs	r1, #1
 8000c4c:	48c5      	ldr	r0, [pc, #788]	; (8000f64 <DDR5_GPIO_Init+0x324>)
 8000c4e:	f7ff fcae 	bl	80005ae <LL_GPIO_ResetOutputPin>
    LL_GPIO_ResetOutputPin(EN_1_PORT, EN_1_PIN);
 8000c52:	2102      	movs	r1, #2
 8000c54:	48c3      	ldr	r0, [pc, #780]	; (8000f64 <DDR5_GPIO_Init+0x324>)
 8000c56:	f7ff fcaa 	bl	80005ae <LL_GPIO_ResetOutputPin>
    LL_GPIO_ResetOutputPin(EN_2_PORT, EN_2_PIN);
 8000c5a:	2104      	movs	r1, #4
 8000c5c:	48c1      	ldr	r0, [pc, #772]	; (8000f64 <DDR5_GPIO_Init+0x324>)
 8000c5e:	f7ff fca6 	bl	80005ae <LL_GPIO_ResetOutputPin>
    LL_GPIO_ResetOutputPin(EN_3_PORT, EN_3_PIN);
 8000c62:	2108      	movs	r1, #8
 8000c64:	48bf      	ldr	r0, [pc, #764]	; (8000f64 <DDR5_GPIO_Init+0x324>)
 8000c66:	f7ff fca2 	bl	80005ae <LL_GPIO_ResetOutputPin>
    LL_GPIO_ResetOutputPin(EN_4_PORT, EN_4_PIN);
 8000c6a:	2110      	movs	r1, #16
 8000c6c:	48bd      	ldr	r0, [pc, #756]	; (8000f64 <DDR5_GPIO_Init+0x324>)
 8000c6e:	f7ff fc9e 	bl	80005ae <LL_GPIO_ResetOutputPin>
    LL_GPIO_ResetOutputPin(EN_5_PORT, EN_5_PIN);
 8000c72:	2120      	movs	r1, #32
 8000c74:	48bb      	ldr	r0, [pc, #748]	; (8000f64 <DDR5_GPIO_Init+0x324>)
 8000c76:	f7ff fc9a 	bl	80005ae <LL_GPIO_ResetOutputPin>
    LL_GPIO_ResetOutputPin(EN_6_PORT, EN_6_PIN);
 8000c7a:	2180      	movs	r1, #128	; 0x80
 8000c7c:	48ba      	ldr	r0, [pc, #744]	; (8000f68 <DDR5_GPIO_Init+0x328>)
 8000c7e:	f7ff fc96 	bl	80005ae <LL_GPIO_ResetOutputPin>
    LL_GPIO_ResetOutputPin(EN_7_PORT, EN_7_PIN);
 8000c82:	f44f 7180 	mov.w	r1, #256	; 0x100
 8000c86:	48b8      	ldr	r0, [pc, #736]	; (8000f68 <DDR5_GPIO_Init+0x328>)
 8000c88:	f7ff fc91 	bl	80005ae <LL_GPIO_ResetOutputPin>

    /* Trigger out idle low */
    LL_GPIO_ResetOutputPin(TRIGGER_OUT_PORT, TRIGGER_OUT_PIN);
 8000c8c:	2104      	movs	r1, #4
 8000c8e:	48b7      	ldr	r0, [pc, #732]	; (8000f6c <DDR5_GPIO_Init+0x32c>)
 8000c90:	f7ff fc8d 	bl	80005ae <LL_GPIO_ResetOutputPin>

    /* AUX default low */
    LL_GPIO_ResetOutputPin(AUX_0_PORT, AUX_0_PIN);
 8000c94:	f44f 6180 	mov.w	r1, #1024	; 0x400
 8000c98:	48b4      	ldr	r0, [pc, #720]	; (8000f6c <DDR5_GPIO_Init+0x32c>)
 8000c9a:	f7ff fc88 	bl	80005ae <LL_GPIO_ResetOutputPin>
    LL_GPIO_ResetOutputPin(AUX_1_PORT, AUX_1_PIN);
 8000c9e:	f44f 5180 	mov.w	r1, #4096	; 0x1000
 8000ca2:	48b2      	ldr	r0, [pc, #712]	; (8000f6c <DDR5_GPIO_Init+0x32c>)
 8000ca4:	f7ff fc83 	bl	80005ae <LL_GPIO_ResetOutputPin>

    /* Shift register defaults */
    LL_GPIO_ResetOutputPin(SRCLK_PORT, SRCLK_PIN);
 8000ca8:	2104      	movs	r1, #4
 8000caa:	48b1      	ldr	r0, [pc, #708]	; (8000f70 <DDR5_GPIO_Init+0x330>)
 8000cac:	f7ff fc7f 	bl	80005ae <LL_GPIO_ResetOutputPin>
    LL_GPIO_ResetOutputPin(SR_DATA_PORT, SR_DATA_PIN);
 8000cb0:	2108      	movs	r1, #8
 8000cb2:	48af      	ldr	r0, [pc, #700]	; (8000f70 <DDR5_GPIO_Init+0x330>)
 8000cb4:	f7ff fc7b 	bl	80005ae <LL_GPIO_ResetOutputPin>
    LL_GPIO_ResetOutputPin(SR_LATCH_PORT, SR_LATCH_PIN);
 8000cb8:	2140      	movs	r1, #64	; 0x40
 8000cba:	48ad      	ldr	r0, [pc, #692]	; (8000f70 <DDR5_GPIO_Init+0x330>)
 8000cbc:	f7ff fc77 	bl	80005ae <LL_GPIO_ResetOutputPin>
    SHIFTREG_RESET_RELEASE();   /* reset inactive (active low) */
 8000cc0:	2120      	movs	r1, #32
 8000cc2:	48ab      	ldr	r0, [pc, #684]	; (8000f70 <DDR5_GPIO_Init+0x330>)
 8000cc4:	f7ff fc65 	bl	8000592 <LL_GPIO_SetOutputPin>

    /* LEDs OFF */
    LED_PASS_OFF();
 8000cc8:	f44f 6180 	mov.w	r1, #1024	; 0x400
 8000ccc:	48a6      	ldr	r0, [pc, #664]	; (8000f68 <DDR5_GPIO_Init+0x328>)
 8000cce:	f7ff fc6e 	bl	80005ae <LL_GPIO_ResetOutputPin>
    LED_FAIL_OFF();
 8000cd2:	f44f 6100 	mov.w	r1, #2048	; 0x800
 8000cd6:	48a4      	ldr	r0, [pc, #656]	; (8000f68 <DDR5_GPIO_Init+0x328>)
 8000cd8:	f7ff fc69 	bl	80005ae <LL_GPIO_ResetOutputPin>
    LED_RUN_OFF();
 8000cdc:	f44f 5180 	mov.w	r1, #4096	; 0x1000
 8000ce0:	48a1      	ldr	r0, [pc, #644]	; (8000f68 <DDR5_GPIO_Init+0x328>)
 8000ce2:	f7ff fc64 	bl	80005ae <LL_GPIO_ResetOutputPin>
    LED_STOP_OFF();
 8000ce6:	2180      	movs	r1, #128	; 0x80
 8000ce8:	48a1      	ldr	r0, [pc, #644]	; (8000f70 <DDR5_GPIO_Init+0x330>)
 8000cea:	f7ff fc60 	bl	80005ae <LL_GPIO_ResetOutputPin>
     * AF number must be checked against CubeMX / datasheet for
     * your exact STM32H563 package and LL headers.
     * Using AF4 here as a placeholder if your Cube project
     * resolves it that way; adjust if needed.
     * ========================================================= */
    DDR5_GPIO_Init_AF(I3C1_SCL_PORT, I3C1_SCL_PIN,
 8000cee:	2300      	movs	r3, #0
 8000cf0:	9301      	str	r3, [sp, #4]
 8000cf2:	2303      	movs	r3, #3
 8000cf4:	9300      	str	r3, [sp, #0]
 8000cf6:	2301      	movs	r3, #1
 8000cf8:	2204      	movs	r2, #4
 8000cfa:	f44f 7180 	mov.w	r1, #256	; 0x100
 8000cfe:	489b      	ldr	r0, [pc, #620]	; (8000f6c <DDR5_GPIO_Init+0x32c>)
 8000d00:	f7ff ff6d 	bl	8000bde <DDR5_GPIO_Init_AF>
                      LL_GPIO_AF_4,
                      LL_GPIO_OUTPUT_OPENDRAIN,
                      LL_GPIO_SPEED_FREQ_VERY_HIGH,
                      LL_GPIO_PULL_NO);

    DDR5_GPIO_Init_AF(I3C1_SDA_PORT, I3C1_SDA_PIN,
 8000d04:	2300      	movs	r3, #0
 8000d06:	9301      	str	r3, [sp, #4]
 8000d08:	2303      	movs	r3, #3
 8000d0a:	9300      	str	r3, [sp, #0]
 8000d0c:	2301      	movs	r3, #1
 8000d0e:	2204      	movs	r2, #4
 8000d10:	f44f 7100 	mov.w	r1, #512	; 0x200
 8000d14:	4895      	ldr	r0, [pc, #596]	; (8000f6c <DDR5_GPIO_Init+0x32c>)
 8000d16:	f7ff ff62 	bl	8000bde <DDR5_GPIO_Init_AF>

    /* =========================================================
     * Menu buttons: input + pull-up
     * Active LOW
     * ========================================================= */
    DDR5_GPIO_Init_Input(BTN_UP_PORT,     BTN_UP_PIN,     LL_GPIO_PULL_NO); //LL_GPIO_PULL_UP
 8000d1a:	2200      	movs	r2, #0
 8000d1c:	2101      	movs	r1, #1
 8000d1e:	4892      	ldr	r0, [pc, #584]	; (8000f68 <DDR5_GPIO_Init+0x328>)
 8000d20:	f7ff ff38 	bl	8000b94 <DDR5_GPIO_Init_Input>
    DDR5_GPIO_Init_Input(BTN_DOWN_PORT,   BTN_DOWN_PIN,   LL_GPIO_PULL_NO);
 8000d24:	2200      	movs	r2, #0
 8000d26:	2104      	movs	r1, #4
 8000d28:	488f      	ldr	r0, [pc, #572]	; (8000f68 <DDR5_GPIO_Init+0x328>)
 8000d2a:	f7ff ff33 	bl	8000b94 <DDR5_GPIO_Init_Input>
    DDR5_GPIO_Init_Input(BTN_LEFT_PORT,   BTN_LEFT_PIN,   LL_GPIO_PULL_NO);
 8000d2e:	2200      	movs	r2, #0
 8000d30:	2108      	movs	r1, #8
 8000d32:	488d      	ldr	r0, [pc, #564]	; (8000f68 <DDR5_GPIO_Init+0x328>)
 8000d34:	f7ff ff2e 	bl	8000b94 <DDR5_GPIO_Init_Input>
    DDR5_GPIO_Init_Input(BTN_RIGHT_PORT,  BTN_RIGHT_PIN,  LL_GPIO_PULL_NO);
 8000d38:	2200      	movs	r2, #0
 8000d3a:	2110      	movs	r1, #16
 8000d3c:	488a      	ldr	r0, [pc, #552]	; (8000f68 <DDR5_GPIO_Init+0x328>)
 8000d3e:	f7ff ff29 	bl	8000b94 <DDR5_GPIO_Init_Input>
    DDR5_GPIO_Init_Input(BTN_OK_PORT,     BTN_OK_PIN,     LL_GPIO_PULL_NO);
 8000d42:	2200      	movs	r2, #0
 8000d44:	2120      	movs	r1, #32
 8000d46:	4888      	ldr	r0, [pc, #544]	; (8000f68 <DDR5_GPIO_Init+0x328>)
 8000d48:	f7ff ff24 	bl	8000b94 <DDR5_GPIO_Init_Input>
    DDR5_GPIO_Init_Input(BTN_CANCEL_PORT, BTN_CANCEL_PIN, LL_GPIO_PULL_NO);
 8000d4c:	2200      	movs	r2, #0
 8000d4e:	2140      	movs	r1, #64	; 0x40
 8000d50:	4885      	ldr	r0, [pc, #532]	; (8000f68 <DDR5_GPIO_Init+0x328>)
 8000d52:	f7ff ff1f 	bl	8000b94 <DDR5_GPIO_Init_Input>
    /* =========================================================
     * Trigger input / output
     * ========================================================= */
    //DDR5_GPIO_Init_Input(TRIGGER_IN_PORT, TRIGGER_IN_PIN, LL_GPIO_PULL_NO);

    DDR5_GPIO_Init_Output(TRIGGER_IN_PORT, TRIGGER_IN_PIN,
 8000d56:	2300      	movs	r3, #0
 8000d58:	9300      	str	r3, [sp, #0]
 8000d5a:	2302      	movs	r3, #2
 8000d5c:	2200      	movs	r2, #0
 8000d5e:	2102      	movs	r1, #2
 8000d60:	4882      	ldr	r0, [pc, #520]	; (8000f6c <DDR5_GPIO_Init+0x32c>)
 8000d62:	f7ff fef8 	bl	8000b56 <DDR5_GPIO_Init_Output>
                              LL_GPIO_OUTPUT_PUSHPULL,
                              LL_GPIO_SPEED_FREQ_HIGH,
                              LL_GPIO_PULL_NO);

    DDR5_GPIO_Init_Output(TRIGGER_OUT_PORT, TRIGGER_OUT_PIN,
 8000d66:	2300      	movs	r3, #0
 8000d68:	9300      	str	r3, [sp, #0]
 8000d6a:	2302      	movs	r3, #2
 8000d6c:	2200      	movs	r2, #0
 8000d6e:	2104      	movs	r1, #4
 8000d70:	487e      	ldr	r0, [pc, #504]	; (8000f6c <DDR5_GPIO_Init+0x32c>)
 8000d72:	f7ff fef0 	bl	8000b56 <DDR5_GPIO_Init_Output>
                          LL_GPIO_PULL_NO);

    /* =========================================================
     * Power enable outputs
     * ========================================================= */
    DDR5_GPIO_Init_Output(EN_0_PORT, EN_0_PIN,
 8000d76:	2300      	movs	r3, #0
 8000d78:	9300      	str	r3, [sp, #0]
 8000d7a:	2300      	movs	r3, #0
 8000d7c:	2200      	movs	r2, #0
 8000d7e:	2101      	movs	r1, #1
 8000d80:	4878      	ldr	r0, [pc, #480]	; (8000f64 <DDR5_GPIO_Init+0x324>)
 8000d82:	f7ff fee8 	bl	8000b56 <DDR5_GPIO_Init_Output>
                          LL_GPIO_OUTPUT_PUSHPULL,
                          LL_GPIO_SPEED_FREQ_LOW,
                          LL_GPIO_PULL_NO);

    DDR5_GPIO_Init_Output(EN_1_PORT, EN_1_PIN,
 8000d86:	2300      	movs	r3, #0
 8000d88:	9300      	str	r3, [sp, #0]
 8000d8a:	2300      	movs	r3, #0
 8000d8c:	2200      	movs	r2, #0
 8000d8e:	2102      	movs	r1, #2
 8000d90:	4874      	ldr	r0, [pc, #464]	; (8000f64 <DDR5_GPIO_Init+0x324>)
 8000d92:	f7ff fee0 	bl	8000b56 <DDR5_GPIO_Init_Output>
                          LL_GPIO_OUTPUT_PUSHPULL,
                          LL_GPIO_SPEED_FREQ_LOW,
                          LL_GPIO_PULL_NO);

    DDR5_GPIO_Init_Output(EN_2_PORT, EN_2_PIN,
 8000d96:	2300      	movs	r3, #0
 8000d98:	9300      	str	r3, [sp, #0]
 8000d9a:	2300      	movs	r3, #0
 8000d9c:	2200      	movs	r2, #0
 8000d9e:	2104      	movs	r1, #4
 8000da0:	4870      	ldr	r0, [pc, #448]	; (8000f64 <DDR5_GPIO_Init+0x324>)
 8000da2:	f7ff fed8 	bl	8000b56 <DDR5_GPIO_Init_Output>
                          LL_GPIO_OUTPUT_PUSHPULL,
                          LL_GPIO_SPEED_FREQ_LOW,
                          LL_GPIO_PULL_NO);

    DDR5_GPIO_Init_Output(EN_3_PORT, EN_3_PIN,
 8000da6:	2300      	movs	r3, #0
 8000da8:	9300      	str	r3, [sp, #0]
 8000daa:	2300      	movs	r3, #0
 8000dac:	2200      	movs	r2, #0
 8000dae:	2108      	movs	r1, #8
 8000db0:	486c      	ldr	r0, [pc, #432]	; (8000f64 <DDR5_GPIO_Init+0x324>)
 8000db2:	f7ff fed0 	bl	8000b56 <DDR5_GPIO_Init_Output>
                          LL_GPIO_OUTPUT_PUSHPULL,
                          LL_GPIO_SPEED_FREQ_LOW,
                          LL_GPIO_PULL_NO);

    DDR5_GPIO_Init_Output(EN_4_PORT, EN_4_PIN,
 8000db6:	2300      	movs	r3, #0
 8000db8:	9300      	str	r3, [sp, #0]
 8000dba:	2300      	movs	r3, #0
 8000dbc:	2200      	movs	r2, #0
 8000dbe:	2110      	movs	r1, #16
 8000dc0:	4868      	ldr	r0, [pc, #416]	; (8000f64 <DDR5_GPIO_Init+0x324>)
 8000dc2:	f7ff fec8 	bl	8000b56 <DDR5_GPIO_Init_Output>
                          LL_GPIO_OUTPUT_PUSHPULL,
                          LL_GPIO_SPEED_FREQ_LOW,
                          LL_GPIO_PULL_NO);

    DDR5_GPIO_Init_Output(EN_5_PORT, EN_5_PIN,
 8000dc6:	2300      	movs	r3, #0
 8000dc8:	9300      	str	r3, [sp, #0]
 8000dca:	2300      	movs	r3, #0
 8000dcc:	2200      	movs	r2, #0
 8000dce:	2120      	movs	r1, #32
 8000dd0:	4864      	ldr	r0, [pc, #400]	; (8000f64 <DDR5_GPIO_Init+0x324>)
 8000dd2:	f7ff fec0 	bl	8000b56 <DDR5_GPIO_Init_Output>
                          LL_GPIO_OUTPUT_PUSHPULL,
                          LL_GPIO_SPEED_FREQ_LOW,
                          LL_GPIO_PULL_NO);

    DDR5_GPIO_Init_Output(EN_6_PORT, EN_6_PIN,
 8000dd6:	2300      	movs	r3, #0
 8000dd8:	9300      	str	r3, [sp, #0]
 8000dda:	2300      	movs	r3, #0
 8000ddc:	2200      	movs	r2, #0
 8000dde:	2180      	movs	r1, #128	; 0x80
 8000de0:	4861      	ldr	r0, [pc, #388]	; (8000f68 <DDR5_GPIO_Init+0x328>)
 8000de2:	f7ff feb8 	bl	8000b56 <DDR5_GPIO_Init_Output>
                          LL_GPIO_OUTPUT_PUSHPULL,
                          LL_GPIO_SPEED_FREQ_LOW,
                          LL_GPIO_PULL_NO);

    DDR5_GPIO_Init_Output(EN_7_PORT, EN_7_PIN,
 8000de6:	2300      	movs	r3, #0
 8000de8:	9300      	str	r3, [sp, #0]
 8000dea:	2300      	movs	r3, #0
 8000dec:	2200      	movs	r2, #0
 8000dee:	f44f 7180 	mov.w	r1, #256	; 0x100
 8000df2:	485d      	ldr	r0, [pc, #372]	; (8000f68 <DDR5_GPIO_Init+0x328>)
 8000df4:	f7ff feaf 	bl	8000b56 <DDR5_GPIO_Init_Output>
    DDR5_GPIO_Init_Input(GOOD_5_PORT, GOOD_5_PIN, LL_GPIO_PULL_NO);
    DDR5_GPIO_Init_Input(GOOD_6_PORT, GOOD_6_PIN, LL_GPIO_PULL_NO);
    DDR5_GPIO_Init_Input(GOOD_7_PORT, GOOD_7_PIN, LL_GPIO_PULL_NO);
	*/

    DDR5_GPIO_Init_Output(GOOD_0_PORT, GOOD_0_PIN,
 8000df8:	2300      	movs	r3, #0
 8000dfa:	9300      	str	r3, [sp, #0]
 8000dfc:	2300      	movs	r3, #0
 8000dfe:	2200      	movs	r2, #0
 8000e00:	f44f 7180 	mov.w	r1, #256	; 0x100
 8000e04:	485b      	ldr	r0, [pc, #364]	; (8000f74 <DDR5_GPIO_Init+0x334>)
 8000e06:	f7ff fea6 	bl	8000b56 <DDR5_GPIO_Init_Output>
                              LL_GPIO_OUTPUT_PUSHPULL,
                              LL_GPIO_SPEED_FREQ_LOW,
                              LL_GPIO_PULL_NO);
    DDR5_GPIO_Init_Output(GOOD_1_PORT, GOOD_1_PIN,
 8000e0a:	2300      	movs	r3, #0
 8000e0c:	9300      	str	r3, [sp, #0]
 8000e0e:	2300      	movs	r3, #0
 8000e10:	2200      	movs	r2, #0
 8000e12:	f44f 7100 	mov.w	r1, #512	; 0x200
 8000e16:	4857      	ldr	r0, [pc, #348]	; (8000f74 <DDR5_GPIO_Init+0x334>)
 8000e18:	f7ff fe9d 	bl	8000b56 <DDR5_GPIO_Init_Output>
                                  LL_GPIO_OUTPUT_PUSHPULL,
                                  LL_GPIO_SPEED_FREQ_LOW,
                                  LL_GPIO_PULL_NO);
    DDR5_GPIO_Init_Output(GOOD_2_PORT, GOOD_2_PIN,
 8000e1c:	2300      	movs	r3, #0
 8000e1e:	9300      	str	r3, [sp, #0]
 8000e20:	2300      	movs	r3, #0
 8000e22:	2200      	movs	r2, #0
 8000e24:	f44f 6180 	mov.w	r1, #1024	; 0x400
 8000e28:	4852      	ldr	r0, [pc, #328]	; (8000f74 <DDR5_GPIO_Init+0x334>)
 8000e2a:	f7ff fe94 	bl	8000b56 <DDR5_GPIO_Init_Output>
                                  LL_GPIO_OUTPUT_PUSHPULL,
                                  LL_GPIO_SPEED_FREQ_LOW,
                                  LL_GPIO_PULL_NO);
    DDR5_GPIO_Init_Output(GOOD_3_PORT, GOOD_3_PIN,
 8000e2e:	2300      	movs	r3, #0
 8000e30:	9300      	str	r3, [sp, #0]
 8000e32:	2300      	movs	r3, #0
 8000e34:	2200      	movs	r2, #0
 8000e36:	f44f 6100 	mov.w	r1, #2048	; 0x800
 8000e3a:	484e      	ldr	r0, [pc, #312]	; (8000f74 <DDR5_GPIO_Init+0x334>)
 8000e3c:	f7ff fe8b 	bl	8000b56 <DDR5_GPIO_Init_Output>
                                  LL_GPIO_OUTPUT_PUSHPULL,
                                  LL_GPIO_SPEED_FREQ_LOW,
                                  LL_GPIO_PULL_NO);
    DDR5_GPIO_Init_Output(GOOD_4_PORT, GOOD_4_PIN,
 8000e40:	2300      	movs	r3, #0
 8000e42:	9300      	str	r3, [sp, #0]
 8000e44:	2300      	movs	r3, #0
 8000e46:	2200      	movs	r2, #0
 8000e48:	f44f 5180 	mov.w	r1, #4096	; 0x1000
 8000e4c:	4849      	ldr	r0, [pc, #292]	; (8000f74 <DDR5_GPIO_Init+0x334>)
 8000e4e:	f7ff fe82 	bl	8000b56 <DDR5_GPIO_Init_Output>
                                  LL_GPIO_OUTPUT_PUSHPULL,
                                  LL_GPIO_SPEED_FREQ_LOW,
                                  LL_GPIO_PULL_NO);
    DDR5_GPIO_Init_Output(GOOD_5_PORT, GOOD_5_PIN,
 8000e52:	2300      	movs	r3, #0
 8000e54:	9300      	str	r3, [sp, #0]
 8000e56:	2300      	movs	r3, #0
 8000e58:	2200      	movs	r2, #0
 8000e5a:	f44f 5100 	mov.w	r1, #8192	; 0x2000
 8000e5e:	4845      	ldr	r0, [pc, #276]	; (8000f74 <DDR5_GPIO_Init+0x334>)
 8000e60:	f7ff fe79 	bl	8000b56 <DDR5_GPIO_Init_Output>
                                  LL_GPIO_OUTPUT_PUSHPULL,
                                  LL_GPIO_SPEED_FREQ_LOW,
                                  LL_GPIO_PULL_NO);
    DDR5_GPIO_Init_Output(GOOD_6_PORT, GOOD_6_PIN,
 8000e64:	2300      	movs	r3, #0
 8000e66:	9300      	str	r3, [sp, #0]
 8000e68:	2300      	movs	r3, #0
 8000e6a:	2200      	movs	r2, #0
 8000e6c:	f44f 4180 	mov.w	r1, #16384	; 0x4000
 8000e70:	4840      	ldr	r0, [pc, #256]	; (8000f74 <DDR5_GPIO_Init+0x334>)
 8000e72:	f7ff fe70 	bl	8000b56 <DDR5_GPIO_Init_Output>
                                  LL_GPIO_OUTPUT_PUSHPULL,
                                  LL_GPIO_SPEED_FREQ_LOW,
                                  LL_GPIO_PULL_NO);
    DDR5_GPIO_Init_Output(GOOD_7_PORT, GOOD_7_PIN,
 8000e76:	2300      	movs	r3, #0
 8000e78:	9300      	str	r3, [sp, #0]
 8000e7a:	2300      	movs	r3, #0
 8000e7c:	2200      	movs	r2, #0
 8000e7e:	f44f 4100 	mov.w	r1, #32768	; 0x8000
 8000e82:	483c      	ldr	r0, [pc, #240]	; (8000f74 <DDR5_GPIO_Init+0x334>)
 8000e84:	f7ff fe67 	bl	8000b56 <DDR5_GPIO_Init_Output>

    /* =========================================================
     * AUX GPIO
     * Default as output, can be changed later if required
     * ========================================================= */
    DDR5_GPIO_Init_Output(AUX_0_PORT, AUX_0_PIN,
 8000e88:	2300      	movs	r3, #0
 8000e8a:	9300      	str	r3, [sp, #0]
 8000e8c:	2300      	movs	r3, #0
 8000e8e:	2200      	movs	r2, #0
 8000e90:	f44f 6180 	mov.w	r1, #1024	; 0x400
 8000e94:	4835      	ldr	r0, [pc, #212]	; (8000f6c <DDR5_GPIO_Init+0x32c>)
 8000e96:	f7ff fe5e 	bl	8000b56 <DDR5_GPIO_Init_Output>
                          LL_GPIO_OUTPUT_PUSHPULL,
                          LL_GPIO_SPEED_FREQ_LOW,
                          LL_GPIO_PULL_NO);

    DDR5_GPIO_Init_Output(AUX_1_PORT, AUX_1_PIN,
 8000e9a:	2300      	movs	r3, #0
 8000e9c:	9300      	str	r3, [sp, #0]
 8000e9e:	2300      	movs	r3, #0
 8000ea0:	2200      	movs	r2, #0
 8000ea2:	f44f 5180 	mov.w	r1, #4096	; 0x1000
 8000ea6:	4831      	ldr	r0, [pc, #196]	; (8000f6c <DDR5_GPIO_Init+0x32c>)
 8000ea8:	f7ff fe55 	bl	8000b56 <DDR5_GPIO_Init_Output>
                          LL_GPIO_PULL_NO);

    /* =========================================================
     * Shift register signals
     * ========================================================= */
    DDR5_GPIO_Init_Output(SRCLK_PORT, SRCLK_PIN,
 8000eac:	2300      	movs	r3, #0
 8000eae:	9300      	str	r3, [sp, #0]
 8000eb0:	2302      	movs	r3, #2
 8000eb2:	2200      	movs	r2, #0
 8000eb4:	2104      	movs	r1, #4
 8000eb6:	482e      	ldr	r0, [pc, #184]	; (8000f70 <DDR5_GPIO_Init+0x330>)
 8000eb8:	f7ff fe4d 	bl	8000b56 <DDR5_GPIO_Init_Output>
                          LL_GPIO_OUTPUT_PUSHPULL,
                          LL_GPIO_SPEED_FREQ_HIGH,
                          LL_GPIO_PULL_NO);

    DDR5_GPIO_Init_Output(SR_DATA_PORT, SR_DATA_PIN,
 8000ebc:	2300      	movs	r3, #0
 8000ebe:	9300      	str	r3, [sp, #0]
 8000ec0:	2302      	movs	r3, #2
 8000ec2:	2200      	movs	r2, #0
 8000ec4:	2108      	movs	r1, #8
 8000ec6:	482a      	ldr	r0, [pc, #168]	; (8000f70 <DDR5_GPIO_Init+0x330>)
 8000ec8:	f7ff fe45 	bl	8000b56 <DDR5_GPIO_Init_Output>
                          LL_GPIO_OUTPUT_PUSHPULL,
                          LL_GPIO_SPEED_FREQ_HIGH,
                          LL_GPIO_PULL_NO);

    DDR5_GPIO_Init_Output(SR_RESET_PORT, SR_RESET_PIN,
 8000ecc:	2300      	movs	r3, #0
 8000ece:	9300      	str	r3, [sp, #0]
 8000ed0:	2302      	movs	r3, #2
 8000ed2:	2200      	movs	r2, #0
 8000ed4:	2120      	movs	r1, #32
 8000ed6:	4826      	ldr	r0, [pc, #152]	; (8000f70 <DDR5_GPIO_Init+0x330>)
 8000ed8:	f7ff fe3d 	bl	8000b56 <DDR5_GPIO_Init_Output>
                          LL_GPIO_OUTPUT_PUSHPULL,
                          LL_GPIO_SPEED_FREQ_HIGH,
                          LL_GPIO_PULL_NO);

    DDR5_GPIO_Init_Output(SR_LATCH_PORT, SR_LATCH_PIN,
 8000edc:	2300      	movs	r3, #0
 8000ede:	9300      	str	r3, [sp, #0]
 8000ee0:	2302      	movs	r3, #2
 8000ee2:	2200      	movs	r2, #0
 8000ee4:	2140      	movs	r1, #64	; 0x40
 8000ee6:	4822      	ldr	r0, [pc, #136]	; (8000f70 <DDR5_GPIO_Init+0x330>)
 8000ee8:	f7ff fe35 	bl	8000b56 <DDR5_GPIO_Init_Output>

    /* =========================================================
     * USART3 VCP (PD8 / PD9)
     * AF7 is the typical USART3 mapping here
     * ========================================================= */
    DDR5_GPIO_Init_AF(VCP_TX_PORT, VCP_TX_PIN,
 8000eec:	2301      	movs	r3, #1
 8000eee:	9301      	str	r3, [sp, #4]
 8000ef0:	2302      	movs	r3, #2
 8000ef2:	9300      	str	r3, [sp, #0]
 8000ef4:	2300      	movs	r3, #0
 8000ef6:	2207      	movs	r2, #7
 8000ef8:	f44f 7180 	mov.w	r1, #256	; 0x100
 8000efc:	4819      	ldr	r0, [pc, #100]	; (8000f64 <DDR5_GPIO_Init+0x324>)
 8000efe:	f7ff fe6e 	bl	8000bde <DDR5_GPIO_Init_AF>
                      LL_GPIO_AF_7,
                      LL_GPIO_OUTPUT_PUSHPULL,
                      LL_GPIO_SPEED_FREQ_HIGH,
                      LL_GPIO_PULL_UP);

    DDR5_GPIO_Init_AF(VCP_RX_PORT, VCP_RX_PIN,
 8000f02:	2301      	movs	r3, #1
 8000f04:	9301      	str	r3, [sp, #4]
 8000f06:	2302      	movs	r3, #2
 8000f08:	9300      	str	r3, [sp, #0]
 8000f0a:	2300      	movs	r3, #0
 8000f0c:	2207      	movs	r2, #7
 8000f0e:	f44f 7100 	mov.w	r1, #512	; 0x200
 8000f12:	4814      	ldr	r0, [pc, #80]	; (8000f64 <DDR5_GPIO_Init+0x324>)
 8000f14:	f7ff fe63 	bl	8000bde <DDR5_GPIO_Init_AF>
                      LL_GPIO_PULL_UP);

    /* =========================================================
     * Status LEDs
     * ========================================================= */
    DDR5_GPIO_Init_Output(LED_PASS_PORT, LED_PASS_PIN,
 8000f18:	2300      	movs	r3, #0
 8000f1a:	9300      	str	r3, [sp, #0]
 8000f1c:	2300      	movs	r3, #0
 8000f1e:	2200      	movs	r2, #0
 8000f20:	f44f 6180 	mov.w	r1, #1024	; 0x400
 8000f24:	4810      	ldr	r0, [pc, #64]	; (8000f68 <DDR5_GPIO_Init+0x328>)
 8000f26:	f7ff fe16 	bl	8000b56 <DDR5_GPIO_Init_Output>
                          LL_GPIO_OUTPUT_PUSHPULL,
                          LL_GPIO_SPEED_FREQ_LOW,
                          LL_GPIO_PULL_NO);

    DDR5_GPIO_Init_Output(LED_FAIL_PORT, LED_FAIL_PIN,
 8000f2a:	2300      	movs	r3, #0
 8000f2c:	9300      	str	r3, [sp, #0]
 8000f2e:	2300      	movs	r3, #0
 8000f30:	2200      	movs	r2, #0
 8000f32:	f44f 6100 	mov.w	r1, #2048	; 0x800
 8000f36:	480c      	ldr	r0, [pc, #48]	; (8000f68 <DDR5_GPIO_Init+0x328>)
 8000f38:	f7ff fe0d 	bl	8000b56 <DDR5_GPIO_Init_Output>
                          LL_GPIO_OUTPUT_PUSHPULL,
                          LL_GPIO_SPEED_FREQ_LOW,
                          LL_GPIO_PULL_NO);

    DDR5_GPIO_Init_Output(LED_RUN_PORT, LED_RUN_PIN,
 8000f3c:	2300      	movs	r3, #0
 8000f3e:	9300      	str	r3, [sp, #0]
 8000f40:	2300      	movs	r3, #0
 8000f42:	2200      	movs	r2, #0
 8000f44:	f44f 5180 	mov.w	r1, #4096	; 0x1000
 8000f48:	4807      	ldr	r0, [pc, #28]	; (8000f68 <DDR5_GPIO_Init+0x328>)
 8000f4a:	f7ff fe04 	bl	8000b56 <DDR5_GPIO_Init_Output>
                          LL_GPIO_OUTPUT_PUSHPULL,
                          LL_GPIO_SPEED_FREQ_LOW,
                          LL_GPIO_PULL_NO);

    DDR5_GPIO_Init_Output(LED_STOP_PORT, LED_STOP_PIN,
 8000f4e:	2300      	movs	r3, #0
 8000f50:	9300      	str	r3, [sp, #0]
 8000f52:	2300      	movs	r3, #0
 8000f54:	2200      	movs	r2, #0
 8000f56:	2180      	movs	r1, #128	; 0x80
 8000f58:	4805      	ldr	r0, [pc, #20]	; (8000f70 <DDR5_GPIO_Init+0x330>)
 8000f5a:	f7ff fdfc 	bl	8000b56 <DDR5_GPIO_Init_Output>
                          LL_GPIO_OUTPUT_PUSHPULL,
                          LL_GPIO_SPEED_FREQ_LOW,
                          LL_GPIO_PULL_NO);
}
 8000f5e:	bf00      	nop
 8000f60:	46bd      	mov	sp, r7
 8000f62:	bd80      	pop	{r7, pc}
 8000f64:	42020c00 	.word	0x42020c00
 8000f68:	42020800 	.word	0x42020800
 8000f6c:	42020400 	.word	0x42020400
 8000f70:	42021400 	.word	0x42021400
 8000f74:	42021000 	.word	0x42021000

08000f78 <DDR5_I2C_Ping>:

    EXTI->EXTICR[index] &= ~(0xFFUL << shift);
    EXTI->EXTICR[index] |= ((portsel & 0xFFUL) << shift);
}
int DDR5_I2C_Ping(I2C_TypeDef *I2Cx, uint8_t addr_7bit)
{
 8000f78:	b580      	push	{r7, lr}
 8000f7a:	b086      	sub	sp, #24
 8000f7c:	af02      	add	r7, sp, #8
 8000f7e:	6078      	str	r0, [r7, #4]
 8000f80:	460b      	mov	r3, r1
 8000f82:	70fb      	strb	r3, [r7, #3]
    uint32_t timeout;
    uint8_t dummy = 0x00;
 8000f84:	2300      	movs	r3, #0
 8000f86:	72bb      	strb	r3, [r7, #10]
    uint8_t tx_started = 0U;
 8000f88:	2300      	movs	r3, #0
 8000f8a:	72fb      	strb	r3, [r7, #11]

    if (I2Cx == NULL)
 8000f8c:	687b      	ldr	r3, [r7, #4]
 8000f8e:	2b00      	cmp	r3, #0
 8000f90:	d102      	bne.n	8000f98 <DDR5_I2C_Ping+0x20>
        return -10;
 8000f92:	f06f 0309 	mvn.w	r3, #9
 8000f96:	e09b      	b.n	80010d0 <DDR5_I2C_Ping+0x158>

    /* Limpiar flags previos */
    if (LL_I2C_IsActiveFlag_STOP(I2Cx))
 8000f98:	6878      	ldr	r0, [r7, #4]
 8000f9a:	f7ff fbec 	bl	8000776 <LL_I2C_IsActiveFlag_STOP>
 8000f9e:	4603      	mov	r3, r0
 8000fa0:	2b00      	cmp	r3, #0
 8000fa2:	d002      	beq.n	8000faa <DDR5_I2C_Ping+0x32>
        LL_I2C_ClearFlag_STOP(I2Cx);
 8000fa4:	6878      	ldr	r0, [r7, #4]
 8000fa6:	f7ff fc45 	bl	8000834 <LL_I2C_ClearFlag_STOP>

    if (LL_I2C_IsActiveFlag_NACK(I2Cx))
 8000faa:	6878      	ldr	r0, [r7, #4]
 8000fac:	f7ff fbd0 	bl	8000750 <LL_I2C_IsActiveFlag_NACK>
 8000fb0:	4603      	mov	r3, r0
 8000fb2:	2b00      	cmp	r3, #0
 8000fb4:	d002      	beq.n	8000fbc <DDR5_I2C_Ping+0x44>
        LL_I2C_ClearFlag_NACK(I2Cx);
 8000fb6:	6878      	ldr	r0, [r7, #4]
 8000fb8:	f7ff fc2c 	bl	8000814 <LL_I2C_ClearFlag_NACK>

    if (LL_I2C_IsActiveFlag_BERR(I2Cx))
 8000fbc:	6878      	ldr	r0, [r7, #4]
 8000fbe:	f7ff fbed 	bl	800079c <LL_I2C_IsActiveFlag_BERR>
 8000fc2:	4603      	mov	r3, r0
 8000fc4:	2b00      	cmp	r3, #0
 8000fc6:	d002      	beq.n	8000fce <DDR5_I2C_Ping+0x56>
        LL_I2C_ClearFlag_BERR(I2Cx);
 8000fc8:	6878      	ldr	r0, [r7, #4]
 8000fca:	f7ff fc43 	bl	8000854 <LL_I2C_ClearFlag_BERR>

    if (LL_I2C_IsActiveFlag_ARLO(I2Cx))
 8000fce:	6878      	ldr	r0, [r7, #4]
 8000fd0:	f7ff fbf8 	bl	80007c4 <LL_I2C_IsActiveFlag_ARLO>
 8000fd4:	4603      	mov	r3, r0
 8000fd6:	2b00      	cmp	r3, #0
 8000fd8:	d002      	beq.n	8000fe0 <DDR5_I2C_Ping+0x68>
        LL_I2C_ClearFlag_ARLO(I2Cx);
 8000fda:	6878      	ldr	r0, [r7, #4]
 8000fdc:	f7ff fc4a 	bl	8000874 <LL_I2C_ClearFlag_ARLO>

    timeout = 100000U;
 8000fe0:	4b3d      	ldr	r3, [pc, #244]	; (80010d8 <DDR5_I2C_Ping+0x160>)
 8000fe2:	60fb      	str	r3, [r7, #12]
    while (LL_I2C_IsActiveFlag_BUSY(I2Cx))
 8000fe4:	e008      	b.n	8000ff8 <DDR5_I2C_Ping+0x80>
    {
        if (--timeout == 0U)
 8000fe6:	68fb      	ldr	r3, [r7, #12]
 8000fe8:	3b01      	subs	r3, #1
 8000fea:	60fb      	str	r3, [r7, #12]
 8000fec:	68fb      	ldr	r3, [r7, #12]
 8000fee:	2b00      	cmp	r3, #0
 8000ff0:	d102      	bne.n	8000ff8 <DDR5_I2C_Ping+0x80>
            return -1;   /* bus busy timeout */
 8000ff2:	f04f 33ff 	mov.w	r3, #4294967295
 8000ff6:	e06b      	b.n	80010d0 <DDR5_I2C_Ping+0x158>
    while (LL_I2C_IsActiveFlag_BUSY(I2Cx))
 8000ff8:	6878      	ldr	r0, [r7, #4]
 8000ffa:	f7ff fbf7 	bl	80007ec <LL_I2C_IsActiveFlag_BUSY>
 8000ffe:	4603      	mov	r3, r0
 8001000:	2b00      	cmp	r3, #0
 8001002:	d1f0      	bne.n	8000fe6 <DDR5_I2C_Ping+0x6e>
    }

    LL_I2C_HandleTransfer(I2Cx,
                          (uint32_t)(addr_7bit << 1),
 8001004:	78fb      	ldrb	r3, [r7, #3]
 8001006:	005b      	lsls	r3, r3, #1
    LL_I2C_HandleTransfer(I2Cx,
 8001008:	4619      	mov	r1, r3
 800100a:	4b34      	ldr	r3, [pc, #208]	; (80010dc <DDR5_I2C_Ping+0x164>)
 800100c:	9301      	str	r3, [sp, #4]
 800100e:	f04f 7300 	mov.w	r3, #33554432	; 0x2000000
 8001012:	9300      	str	r3, [sp, #0]
 8001014:	2301      	movs	r3, #1
 8001016:	2200      	movs	r2, #0
 8001018:	6878      	ldr	r0, [r7, #4]
 800101a:	f7ff fc5f 	bl	80008dc <LL_I2C_HandleTransfer>
                          LL_I2C_ADDRSLAVE_7BIT,
                          1,
                          LL_I2C_MODE_AUTOEND,
                          LL_I2C_GENERATE_START_WRITE);

    timeout = 100000U;
 800101e:	4b2e      	ldr	r3, [pc, #184]	; (80010d8 <DDR5_I2C_Ping+0x160>)
 8001020:	60fb      	str	r3, [r7, #12]

    while (!LL_I2C_IsActiveFlag_STOP(I2Cx))
 8001022:	e045      	b.n	80010b0 <DDR5_I2C_Ping+0x138>
    {
        /* Dirección no reconocida */
        if (LL_I2C_IsActiveFlag_NACK(I2Cx))
 8001024:	6878      	ldr	r0, [r7, #4]
 8001026:	f7ff fb93 	bl	8000750 <LL_I2C_IsActiveFlag_NACK>
 800102a:	4603      	mov	r3, r0
 800102c:	2b00      	cmp	r3, #0
 800102e:	d00e      	beq.n	800104e <DDR5_I2C_Ping+0xd6>
        {
            LL_I2C_ClearFlag_NACK(I2Cx);
 8001030:	6878      	ldr	r0, [r7, #4]
 8001032:	f7ff fbef 	bl	8000814 <LL_I2C_ClearFlag_NACK>

            if (LL_I2C_IsActiveFlag_STOP(I2Cx))
 8001036:	6878      	ldr	r0, [r7, #4]
 8001038:	f7ff fb9d 	bl	8000776 <LL_I2C_IsActiveFlag_STOP>
 800103c:	4603      	mov	r3, r0
 800103e:	2b00      	cmp	r3, #0
 8001040:	d002      	beq.n	8001048 <DDR5_I2C_Ping+0xd0>
                LL_I2C_ClearFlag_STOP(I2Cx);
 8001042:	6878      	ldr	r0, [r7, #4]
 8001044:	f7ff fbf6 	bl	8000834 <LL_I2C_ClearFlag_STOP>

            return -2;   /* no ACK */
 8001048:	f06f 0301 	mvn.w	r3, #1
 800104c:	e040      	b.n	80010d0 <DDR5_I2C_Ping+0x158>
        }

        /* Dirección reconocida y listo para transmitir */
        if ((!tx_started) && LL_I2C_IsActiveFlag_TXIS(I2Cx))
 800104e:	7afb      	ldrb	r3, [r7, #11]
 8001050:	2b00      	cmp	r3, #0
 8001052:	d10c      	bne.n	800106e <DDR5_I2C_Ping+0xf6>
 8001054:	6878      	ldr	r0, [r7, #4]
 8001056:	f7ff fb68 	bl	800072a <LL_I2C_IsActiveFlag_TXIS>
 800105a:	4603      	mov	r3, r0
 800105c:	2b00      	cmp	r3, #0
 800105e:	d006      	beq.n	800106e <DDR5_I2C_Ping+0xf6>
        {
            LL_I2C_TransmitData8(I2Cx, dummy);
 8001060:	7abb      	ldrb	r3, [r7, #10]
 8001062:	4619      	mov	r1, r3
 8001064:	6878      	ldr	r0, [r7, #4]
 8001066:	f7ff fc69 	bl	800093c <LL_I2C_TransmitData8>
            tx_started = 1U;
 800106a:	2301      	movs	r3, #1
 800106c:	72fb      	strb	r3, [r7, #11]
        }

        if (LL_I2C_IsActiveFlag_BERR(I2Cx))
 800106e:	6878      	ldr	r0, [r7, #4]
 8001070:	f7ff fb94 	bl	800079c <LL_I2C_IsActiveFlag_BERR>
 8001074:	4603      	mov	r3, r0
 8001076:	2b00      	cmp	r3, #0
 8001078:	d005      	beq.n	8001086 <DDR5_I2C_Ping+0x10e>
        {
            LL_I2C_ClearFlag_BERR(I2Cx);
 800107a:	6878      	ldr	r0, [r7, #4]
 800107c:	f7ff fbea 	bl	8000854 <LL_I2C_ClearFlag_BERR>
            return -5;
 8001080:	f06f 0304 	mvn.w	r3, #4
 8001084:	e024      	b.n	80010d0 <DDR5_I2C_Ping+0x158>
        }

        if (LL_I2C_IsActiveFlag_ARLO(I2Cx))
 8001086:	6878      	ldr	r0, [r7, #4]
 8001088:	f7ff fb9c 	bl	80007c4 <LL_I2C_IsActiveFlag_ARLO>
 800108c:	4603      	mov	r3, r0
 800108e:	2b00      	cmp	r3, #0
 8001090:	d005      	beq.n	800109e <DDR5_I2C_Ping+0x126>
        {
            LL_I2C_ClearFlag_ARLO(I2Cx);
 8001092:	6878      	ldr	r0, [r7, #4]
 8001094:	f7ff fbee 	bl	8000874 <LL_I2C_ClearFlag_ARLO>
            return -6;
 8001098:	f06f 0305 	mvn.w	r3, #5
 800109c:	e018      	b.n	80010d0 <DDR5_I2C_Ping+0x158>
        }

        if (--timeout == 0U)
 800109e:	68fb      	ldr	r3, [r7, #12]
 80010a0:	3b01      	subs	r3, #1
 80010a2:	60fb      	str	r3, [r7, #12]
 80010a4:	68fb      	ldr	r3, [r7, #12]
 80010a6:	2b00      	cmp	r3, #0
 80010a8:	d102      	bne.n	80010b0 <DDR5_I2C_Ping+0x138>
            return -3;   /* timeout waiting STOP */
 80010aa:	f06f 0302 	mvn.w	r3, #2
 80010ae:	e00f      	b.n	80010d0 <DDR5_I2C_Ping+0x158>
    while (!LL_I2C_IsActiveFlag_STOP(I2Cx))
 80010b0:	6878      	ldr	r0, [r7, #4]
 80010b2:	f7ff fb60 	bl	8000776 <LL_I2C_IsActiveFlag_STOP>
 80010b6:	4603      	mov	r3, r0
 80010b8:	2b00      	cmp	r3, #0
 80010ba:	d0b3      	beq.n	8001024 <DDR5_I2C_Ping+0xac>
    }

    LL_I2C_ClearFlag_STOP(I2Cx);
 80010bc:	6878      	ldr	r0, [r7, #4]
 80010be:	f7ff fbb9 	bl	8000834 <LL_I2C_ClearFlag_STOP>

    /* Si nunca hubo TXIS, algo raro pasó */
    if (!tx_started)
 80010c2:	7afb      	ldrb	r3, [r7, #11]
 80010c4:	2b00      	cmp	r3, #0
 80010c6:	d102      	bne.n	80010ce <DDR5_I2C_Ping+0x156>
        return -4;
 80010c8:	f06f 0303 	mvn.w	r3, #3
 80010cc:	e000      	b.n	80010d0 <DDR5_I2C_Ping+0x158>

    return 0;
 80010ce:	2300      	movs	r3, #0
}
 80010d0:	4618      	mov	r0, r3
 80010d2:	3710      	adds	r7, #16
 80010d4:	46bd      	mov	sp, r7
 80010d6:	bd80      	pop	{r7, pc}
 80010d8:	000186a0 	.word	0x000186a0
 80010dc:	80002000 	.word	0x80002000

080010e0 <DDR5_I2C_Scan>:
    }

    DDR5_UART_WriteString(USART3, "Scan done\r\n", 100000U);
}
void DDR5_I2C_Scan(I2C_TypeDef *I2Cx)
{
 80010e0:	b580      	push	{r7, lr}
 80010e2:	b08c      	sub	sp, #48	; 0x30
 80010e4:	af00      	add	r7, sp, #0
 80010e6:	6078      	str	r0, [r7, #4]
    char msg[32];

    for (uint8_t addr = 0x08; addr < 0x78; addr++)
 80010e8:	2308      	movs	r3, #8
 80010ea:	f887 302f 	strb.w	r3, [r7, #47]	; 0x2f
 80010ee:	e01d      	b.n	800112c <DDR5_I2C_Scan+0x4c>
    {
        int rc = DDR5_I2C_Ping(I2Cx, addr);
 80010f0:	f897 302f 	ldrb.w	r3, [r7, #47]	; 0x2f
 80010f4:	4619      	mov	r1, r3
 80010f6:	6878      	ldr	r0, [r7, #4]
 80010f8:	f7ff ff3e 	bl	8000f78 <DDR5_I2C_Ping>
 80010fc:	62b8      	str	r0, [r7, #40]	; 0x28

        if (rc == 0)
 80010fe:	6abb      	ldr	r3, [r7, #40]	; 0x28
 8001100:	2b00      	cmp	r3, #0
 8001102:	d10e      	bne.n	8001122 <DDR5_I2C_Scan+0x42>
        {
            snprintf(msg, sizeof(msg), "ACK 0x%02X\r\n", addr);
 8001104:	f897 302f 	ldrb.w	r3, [r7, #47]	; 0x2f
 8001108:	f107 0008 	add.w	r0, r7, #8
 800110c:	4a0c      	ldr	r2, [pc, #48]	; (8001140 <DDR5_I2C_Scan+0x60>)
 800110e:	2120      	movs	r1, #32
 8001110:	f001 f814 	bl	800213c <sniprintf>
            DDR5_UART_WriteString(USART3, msg, 100000U);
 8001114:	f107 0308 	add.w	r3, r7, #8
 8001118:	4a0a      	ldr	r2, [pc, #40]	; (8001144 <DDR5_I2C_Scan+0x64>)
 800111a:	4619      	mov	r1, r3
 800111c:	480a      	ldr	r0, [pc, #40]	; (8001148 <DDR5_I2C_Scan+0x68>)
 800111e:	f000 f909 	bl	8001334 <DDR5_UART_WriteString>
    for (uint8_t addr = 0x08; addr < 0x78; addr++)
 8001122:	f897 302f 	ldrb.w	r3, [r7, #47]	; 0x2f
 8001126:	3301      	adds	r3, #1
 8001128:	f887 302f 	strb.w	r3, [r7, #47]	; 0x2f
 800112c:	f897 302f 	ldrb.w	r3, [r7, #47]	; 0x2f
 8001130:	2b77      	cmp	r3, #119	; 0x77
 8001132:	d9dd      	bls.n	80010f0 <DDR5_I2C_Scan+0x10>
        }
    }
}
 8001134:	bf00      	nop
 8001136:	bf00      	nop
 8001138:	3730      	adds	r7, #48	; 0x30
 800113a:	46bd      	mov	sp, r7
 800113c:	bd80      	pop	{r7, pc}
 800113e:	bf00      	nop
 8001140:	08002ad0 	.word	0x08002ad0
 8001144:	000186a0 	.word	0x000186a0
 8001148:	40004800 	.word	0x40004800

0800114c <DDR5_I2C1_Init>:
    LL_I2C_EnableAutoEndMode(I2C1);
    LL_I2C_Enable(I2C1);
}

void DDR5_I2C1_Init(void)
{
 800114c:	b580      	push	{r7, lr}
 800114e:	af00      	add	r7, sp, #0

    LL_AHB2_GRP1_EnableClock(LL_AHB2_GRP1_PERIPH_GPIOB);
 8001150:	2002      	movs	r0, #2
 8001152:	f7ff f89b 	bl	800028c <LL_AHB2_GRP1_EnableClock>
    LL_APB1_GRP1_EnableClock(LL_APB1_GRP1_PERIPH_I2C1);
 8001156:	f44f 1000 	mov.w	r0, #2097152	; 0x200000
 800115a:	f7ff f8b3 	bl	80002c4 <LL_APB1_GRP1_EnableClock>

    /* PB6 = SCL, PB7 = SDA */
    LL_GPIO_SetPinMode(GPIOB, LL_GPIO_PIN_6, LL_GPIO_MODE_ALTERNATE);
 800115e:	2202      	movs	r2, #2
 8001160:	2140      	movs	r1, #64	; 0x40
 8001162:	482c      	ldr	r0, [pc, #176]	; (8001214 <DDR5_I2C1_Init+0xc8>)
 8001164:	f7ff f8ca 	bl	80002fc <LL_GPIO_SetPinMode>
    LL_GPIO_SetPinMode(GPIOB, LL_GPIO_PIN_7, LL_GPIO_MODE_ALTERNATE);
 8001168:	2202      	movs	r2, #2
 800116a:	2180      	movs	r1, #128	; 0x80
 800116c:	4829      	ldr	r0, [pc, #164]	; (8001214 <DDR5_I2C1_Init+0xc8>)
 800116e:	f7ff f8c5 	bl	80002fc <LL_GPIO_SetPinMode>

    LL_GPIO_SetAFPin_0_7(GPIOB, LL_GPIO_PIN_6, LL_GPIO_AF_4);
 8001172:	2204      	movs	r2, #4
 8001174:	2140      	movs	r1, #64	; 0x40
 8001176:	4827      	ldr	r0, [pc, #156]	; (8001214 <DDR5_I2C1_Init+0xc8>)
 8001178:	f7ff f98f 	bl	800049a <LL_GPIO_SetAFPin_0_7>
    LL_GPIO_SetAFPin_0_7(GPIOB, LL_GPIO_PIN_7, LL_GPIO_AF_4);
 800117c:	2204      	movs	r2, #4
 800117e:	2180      	movs	r1, #128	; 0x80
 8001180:	4824      	ldr	r0, [pc, #144]	; (8001214 <DDR5_I2C1_Init+0xc8>)
 8001182:	f7ff f98a 	bl	800049a <LL_GPIO_SetAFPin_0_7>

    LL_GPIO_SetPinOutputType(GPIOB, LL_GPIO_PIN_6, LL_GPIO_OUTPUT_OPENDRAIN);
 8001186:	2201      	movs	r2, #1
 8001188:	2140      	movs	r1, #64	; 0x40
 800118a:	4822      	ldr	r0, [pc, #136]	; (8001214 <DDR5_I2C1_Init+0xc8>)
 800118c:	f7ff f8f3 	bl	8000376 <LL_GPIO_SetPinOutputType>
    LL_GPIO_SetPinOutputType(GPIOB, LL_GPIO_PIN_7, LL_GPIO_OUTPUT_OPENDRAIN);
 8001190:	2201      	movs	r2, #1
 8001192:	2180      	movs	r1, #128	; 0x80
 8001194:	481f      	ldr	r0, [pc, #124]	; (8001214 <DDR5_I2C1_Init+0xc8>)
 8001196:	f7ff f8ee 	bl	8000376 <LL_GPIO_SetPinOutputType>

    LL_GPIO_SetPinPull(GPIOB, LL_GPIO_PIN_6, LL_GPIO_PULL_NO);
 800119a:	2200      	movs	r2, #0
 800119c:	2140      	movs	r1, #64	; 0x40
 800119e:	481d      	ldr	r0, [pc, #116]	; (8001214 <DDR5_I2C1_Init+0xc8>)
 80011a0:	f7ff f93e 	bl	8000420 <LL_GPIO_SetPinPull>
    LL_GPIO_SetPinPull(GPIOB, LL_GPIO_PIN_7, LL_GPIO_PULL_NO);
 80011a4:	2200      	movs	r2, #0
 80011a6:	2180      	movs	r1, #128	; 0x80
 80011a8:	481a      	ldr	r0, [pc, #104]	; (8001214 <DDR5_I2C1_Init+0xc8>)
 80011aa:	f7ff f939 	bl	8000420 <LL_GPIO_SetPinPull>

    LL_GPIO_SetPinSpeed(GPIOB, LL_GPIO_PIN_6, LL_GPIO_SPEED_FREQ_HIGH);
 80011ae:	2202      	movs	r2, #2
 80011b0:	2140      	movs	r1, #64	; 0x40
 80011b2:	4818      	ldr	r0, [pc, #96]	; (8001214 <DDR5_I2C1_Init+0xc8>)
 80011b4:	f7ff f8f7 	bl	80003a6 <LL_GPIO_SetPinSpeed>
    LL_GPIO_SetPinSpeed(GPIOB, LL_GPIO_PIN_7, LL_GPIO_SPEED_FREQ_HIGH);
 80011b8:	2202      	movs	r2, #2
 80011ba:	2180      	movs	r1, #128	; 0x80
 80011bc:	4815      	ldr	r0, [pc, #84]	; (8001214 <DDR5_I2C1_Init+0xc8>)
 80011be:	f7ff f8f2 	bl	80003a6 <LL_GPIO_SetPinSpeed>

    LL_I2C_Disable(I2C1);
 80011c2:	4815      	ldr	r0, [pc, #84]	; (8001218 <DDR5_I2C1_Init+0xcc>)
 80011c4:	f7ff fa24 	bl	8000610 <LL_I2C_Disable>

    LL_I2C_SetTiming(I2C1, 0x403032CA);
 80011c8:	4914      	ldr	r1, [pc, #80]	; (800121c <DDR5_I2C1_Init+0xd0>)
 80011ca:	4813      	ldr	r0, [pc, #76]	; (8001218 <DDR5_I2C1_Init+0xcc>)
 80011cc:	f7ff fa8c 	bl	80006e8 <LL_I2C_SetTiming>

    LL_I2C_EnableAnalogFilter(I2C1);
 80011d0:	4811      	ldr	r0, [pc, #68]	; (8001218 <DDR5_I2C1_Init+0xcc>)
 80011d2:	f7ff fa41 	bl	8000658 <LL_I2C_EnableAnalogFilter>
    LL_I2C_SetDigitalFilter(I2C1, 0);
 80011d6:	2100      	movs	r1, #0
 80011d8:	480f      	ldr	r0, [pc, #60]	; (8001218 <DDR5_I2C1_Init+0xcc>)
 80011da:	f7ff fa29 	bl	8000630 <LL_I2C_SetDigitalFilter>

    LL_I2C_SetOwnAddress1(I2C1, 0x00, LL_I2C_OWNADDRESS1_7BIT);
 80011de:	2200      	movs	r2, #0
 80011e0:	2100      	movs	r1, #0
 80011e2:	480d      	ldr	r0, [pc, #52]	; (8001218 <DDR5_I2C1_Init+0xcc>)
 80011e4:	f7ff fa58 	bl	8000698 <LL_I2C_SetOwnAddress1>
    LL_I2C_DisableOwnAddress1(I2C1);
 80011e8:	480b      	ldr	r0, [pc, #44]	; (8001218 <DDR5_I2C1_Init+0xcc>)
 80011ea:	f7ff fa6d 	bl	80006c8 <LL_I2C_DisableOwnAddress1>
    //LL_I2C_DisableOwnAddress2(I2C1);
    LL_I2C_DisableGeneralCall(I2C1);
 80011ee:	480a      	ldr	r0, [pc, #40]	; (8001218 <DDR5_I2C1_Init+0xcc>)
 80011f0:	f7ff fa42 	bl	8000678 <LL_I2C_DisableGeneralCall>

    LL_I2C_SetMode(I2C1,LL_I2C_MODE_I2C);
 80011f4:	2100      	movs	r1, #0
 80011f6:	4808      	ldr	r0, [pc, #32]	; (8001218 <DDR5_I2C1_Init+0xcc>)
 80011f8:	f7ff fa84 	bl	8000704 <LL_I2C_SetMode>
    LL_I2C_AcknowledgeNextData(I2C1,LL_I2C_ACK);
 80011fc:	2100      	movs	r1, #0
 80011fe:	4806      	ldr	r0, [pc, #24]	; (8001218 <DDR5_I2C1_Init+0xcc>)
 8001200:	f7ff fb58 	bl	80008b4 <LL_I2C_AcknowledgeNextData>

    LL_I2C_EnableAutoEndMode(I2C1);
 8001204:	4804      	ldr	r0, [pc, #16]	; (8001218 <DDR5_I2C1_Init+0xcc>)
 8001206:	f7ff fb45 	bl	8000894 <LL_I2C_EnableAutoEndMode>
    //LL_I2C_EnableClockStretching(I2C1);

    LL_I2C_Enable(I2C1);
 800120a:	4803      	ldr	r0, [pc, #12]	; (8001218 <DDR5_I2C1_Init+0xcc>)
 800120c:	f7ff f9f0 	bl	80005f0 <LL_I2C_Enable>


}
 8001210:	bf00      	nop
 8001212:	bd80      	pop	{r7, pc}
 8001214:	42020400 	.word	0x42020400
 8001218:	40005400 	.word	0x40005400
 800121c:	403032ca 	.word	0x403032ca

08001220 <DDR5_UART_WaitFlagSet>:
}

static int DDR5_UART_WaitFlagSet(volatile const uint32_t *reg,
                                 uint32_t mask,
                                 uint32_t timeout)
{
 8001220:	b480      	push	{r7}
 8001222:	b085      	sub	sp, #20
 8001224:	af00      	add	r7, sp, #0
 8001226:	60f8      	str	r0, [r7, #12]
 8001228:	60b9      	str	r1, [r7, #8]
 800122a:	607a      	str	r2, [r7, #4]
    while (((*reg) & mask) == 0U)
 800122c:	e008      	b.n	8001240 <DDR5_UART_WaitFlagSet+0x20>
    {
        if (timeout == 0U)
 800122e:	687b      	ldr	r3, [r7, #4]
 8001230:	2b00      	cmp	r3, #0
 8001232:	d102      	bne.n	800123a <DDR5_UART_WaitFlagSet+0x1a>
        {
            return DDR5_UART_ERR_TIMEOUT;
 8001234:	f06f 0301 	mvn.w	r3, #1
 8001238:	e009      	b.n	800124e <DDR5_UART_WaitFlagSet+0x2e>
        }
        timeout--;
 800123a:	687b      	ldr	r3, [r7, #4]
 800123c:	3b01      	subs	r3, #1
 800123e:	607b      	str	r3, [r7, #4]
    while (((*reg) & mask) == 0U)
 8001240:	68fb      	ldr	r3, [r7, #12]
 8001242:	681a      	ldr	r2, [r3, #0]
 8001244:	68bb      	ldr	r3, [r7, #8]
 8001246:	4013      	ands	r3, r2
 8001248:	2b00      	cmp	r3, #0
 800124a:	d0f0      	beq.n	800122e <DDR5_UART_WaitFlagSet+0xe>
    }

    return DDR5_UART_OK;
 800124c:	2300      	movs	r3, #0
}
 800124e:	4618      	mov	r0, r3
 8001250:	3714      	adds	r7, #20
 8001252:	46bd      	mov	sp, r7
 8001254:	f85d 7b04 	ldr.w	r7, [sp], #4
 8001258:	4770      	bx	lr

0800125a <DDR5_UART_Init_115200_8N1>:
    LL_GPIO_SetPinPull(GPIOB, LL_GPIO_PIN_10, LL_GPIO_PULL_NO);
    LL_GPIO_SetPinPull(GPIOB, LL_GPIO_PIN_11, LL_GPIO_PULL_NO);
}

int DDR5_UART_Init_115200_8N1(USART_TypeDef *USARTx, uint32_t periph_clk_hz)
{
 800125a:	b580      	push	{r7, lr}
 800125c:	b084      	sub	sp, #16
 800125e:	af02      	add	r7, sp, #8
 8001260:	6078      	str	r0, [r7, #4]
 8001262:	6039      	str	r1, [r7, #0]
    if ((USARTx == NULL) || (periph_clk_hz == 0U))
 8001264:	687b      	ldr	r3, [r7, #4]
 8001266:	2b00      	cmp	r3, #0
 8001268:	d002      	beq.n	8001270 <DDR5_UART_Init_115200_8N1+0x16>
 800126a:	683b      	ldr	r3, [r7, #0]
 800126c:	2b00      	cmp	r3, #0
 800126e:	d102      	bne.n	8001276 <DDR5_UART_Init_115200_8N1+0x1c>
    {
        return DDR5_UART_ERR_PARAM;
 8001270:	f04f 33ff 	mov.w	r3, #4294967295
 8001274:	e029      	b.n	80012ca <DDR5_UART_Init_115200_8N1+0x70>
    }

    LL_APB1_GRP1_EnableClock(LL_APB1_GRP1_PERIPH_USART3);
 8001276:	f44f 2080 	mov.w	r0, #262144	; 0x40000
 800127a:	f7ff f823 	bl	80002c4 <LL_APB1_GRP1_EnableClock>

    LL_USART_Disable(USARTx);
 800127e:	6878      	ldr	r0, [r7, #4]
 8001280:	f7ff fb7b 	bl	800097a <LL_USART_Disable>

    LL_USART_SetTransferDirection(USARTx, LL_USART_DIRECTION_TX_RX);
 8001284:	210c      	movs	r1, #12
 8001286:	6878      	ldr	r0, [r7, #4]
 8001288:	f7ff fb87 	bl	800099a <LL_USART_SetTransferDirection>
    LL_USART_ConfigCharacter(USARTx,
 800128c:	2300      	movs	r3, #0
 800128e:	2200      	movs	r2, #0
 8001290:	2100      	movs	r1, #0
 8001292:	6878      	ldr	r0, [r7, #4]
 8001294:	f7ff fbcc 	bl	8000a30 <LL_USART_ConfigCharacter>
                             LL_USART_DATAWIDTH_8B,
                             LL_USART_PARITY_NONE,
                             LL_USART_STOPBITS_1);

    LL_USART_SetHWFlowCtrl(USARTx, LL_USART_HWCONTROL_NONE);
 8001298:	2100      	movs	r1, #0
 800129a:	6878      	ldr	r0, [r7, #4]
 800129c:	f7ff fbe9 	bl	8000a72 <LL_USART_SetHWFlowCtrl>
    LL_USART_SetOverSampling(USARTx, LL_USART_OVERSAMPLING_16);
 80012a0:	2100      	movs	r1, #0
 80012a2:	6878      	ldr	r0, [r7, #4]
 80012a4:	f7ff fb9d 	bl	80009e2 <LL_USART_SetOverSampling>
    LL_USART_SetPrescaler(USARTx, LL_USART_PRESCALER_DIV1);
 80012a8:	2100      	movs	r1, #0
 80012aa:	6878      	ldr	r0, [r7, #4]
 80012ac:	f7ff fbac 	bl	8000a08 <LL_USART_SetPrescaler>

    LL_USART_SetBaudRate(USARTx,
 80012b0:	f44f 33e1 	mov.w	r3, #115200	; 0x1c200
 80012b4:	9300      	str	r3, [sp, #0]
 80012b6:	2300      	movs	r3, #0
 80012b8:	2200      	movs	r2, #0
 80012ba:	6839      	ldr	r1, [r7, #0]
 80012bc:	6878      	ldr	r0, [r7, #4]
 80012be:	f7ff fbeb 	bl	8000a98 <LL_USART_SetBaudRate>
                         periph_clk_hz,
                         LL_USART_PRESCALER_DIV1,
                         LL_USART_OVERSAMPLING_16,
                         115200U);

    LL_USART_Enable(USARTx);
 80012c2:	6878      	ldr	r0, [r7, #4]
 80012c4:	f7ff fb49 	bl	800095a <LL_USART_Enable>

    return DDR5_UART_OK;
 80012c8:	2300      	movs	r3, #0
}
 80012ca:	4618      	mov	r0, r3
 80012cc:	3708      	adds	r7, #8
 80012ce:	46bd      	mov	sp, r7
 80012d0:	bd80      	pop	{r7, pc}

080012d2 <DDR5_UART_WriteByte>:

int DDR5_UART_WriteByte(USART_TypeDef *USARTx, uint8_t byte, uint32_t timeout)
{
 80012d2:	b580      	push	{r7, lr}
 80012d4:	b086      	sub	sp, #24
 80012d6:	af00      	add	r7, sp, #0
 80012d8:	60f8      	str	r0, [r7, #12]
 80012da:	460b      	mov	r3, r1
 80012dc:	607a      	str	r2, [r7, #4]
 80012de:	72fb      	strb	r3, [r7, #11]
    int rc;

    if (USARTx == NULL)
 80012e0:	68fb      	ldr	r3, [r7, #12]
 80012e2:	2b00      	cmp	r3, #0
 80012e4:	d102      	bne.n	80012ec <DDR5_UART_WriteByte+0x1a>
    {
        return DDR5_UART_ERR_PARAM;
 80012e6:	f04f 33ff 	mov.w	r3, #4294967295
 80012ea:	e01f      	b.n	800132c <DDR5_UART_WriteByte+0x5a>
    }

    rc = DDR5_UART_WaitFlagSet(&USARTx->ISR, USART_ISR_TXE_TXFNF, timeout);
 80012ec:	68fb      	ldr	r3, [r7, #12]
 80012ee:	331c      	adds	r3, #28
 80012f0:	687a      	ldr	r2, [r7, #4]
 80012f2:	2180      	movs	r1, #128	; 0x80
 80012f4:	4618      	mov	r0, r3
 80012f6:	f7ff ff93 	bl	8001220 <DDR5_UART_WaitFlagSet>
 80012fa:	6178      	str	r0, [r7, #20]
    if (rc != DDR5_UART_OK)
 80012fc:	697b      	ldr	r3, [r7, #20]
 80012fe:	2b00      	cmp	r3, #0
 8001300:	d001      	beq.n	8001306 <DDR5_UART_WriteByte+0x34>
    {
        return rc;
 8001302:	697b      	ldr	r3, [r7, #20]
 8001304:	e012      	b.n	800132c <DDR5_UART_WriteByte+0x5a>
    }

    LL_USART_TransmitData8(USARTx, byte);
 8001306:	7afb      	ldrb	r3, [r7, #11]
 8001308:	4619      	mov	r1, r3
 800130a:	68f8      	ldr	r0, [r7, #12]
 800130c:	f7ff fc14 	bl	8000b38 <LL_USART_TransmitData8>

    rc = DDR5_UART_WaitFlagSet(&USARTx->ISR, USART_ISR_TC, timeout);
 8001310:	68fb      	ldr	r3, [r7, #12]
 8001312:	331c      	adds	r3, #28
 8001314:	687a      	ldr	r2, [r7, #4]
 8001316:	2140      	movs	r1, #64	; 0x40
 8001318:	4618      	mov	r0, r3
 800131a:	f7ff ff81 	bl	8001220 <DDR5_UART_WaitFlagSet>
 800131e:	6178      	str	r0, [r7, #20]
    if (rc != DDR5_UART_OK)
 8001320:	697b      	ldr	r3, [r7, #20]
 8001322:	2b00      	cmp	r3, #0
 8001324:	d001      	beq.n	800132a <DDR5_UART_WriteByte+0x58>
    {
        return rc;
 8001326:	697b      	ldr	r3, [r7, #20]
 8001328:	e000      	b.n	800132c <DDR5_UART_WriteByte+0x5a>
    }

    return DDR5_UART_OK;
 800132a:	2300      	movs	r3, #0
}
 800132c:	4618      	mov	r0, r3
 800132e:	3718      	adds	r7, #24
 8001330:	46bd      	mov	sp, r7
 8001332:	bd80      	pop	{r7, pc}

08001334 <DDR5_UART_WriteString>:
}

int DDR5_UART_WriteString(USART_TypeDef *USARTx,
                          const char *str,
                          uint32_t timeout_per_byte)
{
 8001334:	b580      	push	{r7, lr}
 8001336:	b086      	sub	sp, #24
 8001338:	af00      	add	r7, sp, #0
 800133a:	60f8      	str	r0, [r7, #12]
 800133c:	60b9      	str	r1, [r7, #8]
 800133e:	607a      	str	r2, [r7, #4]
    if ((USARTx == NULL) || (str == NULL))
 8001340:	68fb      	ldr	r3, [r7, #12]
 8001342:	2b00      	cmp	r3, #0
 8001344:	d002      	beq.n	800134c <DDR5_UART_WriteString+0x18>
 8001346:	68bb      	ldr	r3, [r7, #8]
 8001348:	2b00      	cmp	r3, #0
 800134a:	d112      	bne.n	8001372 <DDR5_UART_WriteString+0x3e>
    {
        return DDR5_UART_ERR_PARAM;
 800134c:	f04f 33ff 	mov.w	r3, #4294967295
 8001350:	e014      	b.n	800137c <DDR5_UART_WriteString+0x48>
    }

    while (*str != '\0')
    {
        int rc = DDR5_UART_WriteByte(USARTx, (uint8_t)(*str), timeout_per_byte);
 8001352:	68bb      	ldr	r3, [r7, #8]
 8001354:	781b      	ldrb	r3, [r3, #0]
 8001356:	687a      	ldr	r2, [r7, #4]
 8001358:	4619      	mov	r1, r3
 800135a:	68f8      	ldr	r0, [r7, #12]
 800135c:	f7ff ffb9 	bl	80012d2 <DDR5_UART_WriteByte>
 8001360:	6178      	str	r0, [r7, #20]
        if (rc != DDR5_UART_OK)
 8001362:	697b      	ldr	r3, [r7, #20]
 8001364:	2b00      	cmp	r3, #0
 8001366:	d001      	beq.n	800136c <DDR5_UART_WriteString+0x38>
        {
            return rc;
 8001368:	697b      	ldr	r3, [r7, #20]
 800136a:	e007      	b.n	800137c <DDR5_UART_WriteString+0x48>
        }
        str++;
 800136c:	68bb      	ldr	r3, [r7, #8]
 800136e:	3301      	adds	r3, #1
 8001370:	60bb      	str	r3, [r7, #8]
    while (*str != '\0')
 8001372:	68bb      	ldr	r3, [r7, #8]
 8001374:	781b      	ldrb	r3, [r3, #0]
 8001376:	2b00      	cmp	r3, #0
 8001378:	d1eb      	bne.n	8001352 <DDR5_UART_WriteString+0x1e>
    }

    return DDR5_UART_OK;
 800137a:	2300      	movs	r3, #0
}
 800137c:	4618      	mov	r0, r3
 800137e:	3718      	adds	r7, #24
 8001380:	46bd      	mov	sp, r7
 8001382:	bd80      	pop	{r7, pc}

08001384 <__NVIC_SetPriority>:
  \param [in]      IRQn  Interrupt number.
  \param [in]  priority  Priority to set.
  \note    The priority cannot be set for every processor exception.
 */
__STATIC_INLINE void __NVIC_SetPriority(IRQn_Type IRQn, uint32_t priority)
{
 8001384:	b480      	push	{r7}
 8001386:	b083      	sub	sp, #12
 8001388:	af00      	add	r7, sp, #0
 800138a:	4603      	mov	r3, r0
 800138c:	6039      	str	r1, [r7, #0]
 800138e:	80fb      	strh	r3, [r7, #6]
  if ((int32_t)(IRQn) >= 0)
 8001390:	f9b7 3006 	ldrsh.w	r3, [r7, #6]
 8001394:	2b00      	cmp	r3, #0
 8001396:	db0a      	blt.n	80013ae <__NVIC_SetPriority+0x2a>
  {
    NVIC->IPR[((uint32_t)IRQn)]               = (uint8_t)((priority << (8U - __NVIC_PRIO_BITS)) & (uint32_t)0xFFUL);
 8001398:	683b      	ldr	r3, [r7, #0]
 800139a:	b2da      	uxtb	r2, r3
 800139c:	490c      	ldr	r1, [pc, #48]	; (80013d0 <__NVIC_SetPriority+0x4c>)
 800139e:	f9b7 3006 	ldrsh.w	r3, [r7, #6]
 80013a2:	0112      	lsls	r2, r2, #4
 80013a4:	b2d2      	uxtb	r2, r2
 80013a6:	440b      	add	r3, r1
 80013a8:	f883 2300 	strb.w	r2, [r3, #768]	; 0x300
  }
  else
  {
    SCB->SHPR[(((uint32_t)IRQn) & 0xFUL)-4UL] = (uint8_t)((priority << (8U - __NVIC_PRIO_BITS)) & (uint32_t)0xFFUL);
  }
}
 80013ac:	e00a      	b.n	80013c4 <__NVIC_SetPriority+0x40>
    SCB->SHPR[(((uint32_t)IRQn) & 0xFUL)-4UL] = (uint8_t)((priority << (8U - __NVIC_PRIO_BITS)) & (uint32_t)0xFFUL);
 80013ae:	683b      	ldr	r3, [r7, #0]
 80013b0:	b2da      	uxtb	r2, r3
 80013b2:	4908      	ldr	r1, [pc, #32]	; (80013d4 <__NVIC_SetPriority+0x50>)
 80013b4:	88fb      	ldrh	r3, [r7, #6]
 80013b6:	f003 030f 	and.w	r3, r3, #15
 80013ba:	3b04      	subs	r3, #4
 80013bc:	0112      	lsls	r2, r2, #4
 80013be:	b2d2      	uxtb	r2, r2
 80013c0:	440b      	add	r3, r1
 80013c2:	761a      	strb	r2, [r3, #24]
}
 80013c4:	bf00      	nop
 80013c6:	370c      	adds	r7, #12
 80013c8:	46bd      	mov	sp, r7
 80013ca:	f85d 7b04 	ldr.w	r7, [sp], #4
 80013ce:	4770      	bx	lr
 80013d0:	e000e100 	.word	0xe000e100
 80013d4:	e000ed00 	.word	0xe000ed00

080013d8 <SysTick_Config>:
  \note    When the variable <b>__Vendor_SysTickConfig</b> is set to 1, then the
           function <b>SysTick_Config</b> is not included. In this case, the file <b><i>device</i>.h</b>
           must contain a vendor-specific implementation of this function.
 */
__STATIC_INLINE uint32_t SysTick_Config(uint32_t ticks)
{
 80013d8:	b580      	push	{r7, lr}
 80013da:	b082      	sub	sp, #8
 80013dc:	af00      	add	r7, sp, #0
 80013de:	6078      	str	r0, [r7, #4]
  if ((ticks - 1UL) > SysTick_LOAD_RELOAD_Msk)
 80013e0:	687b      	ldr	r3, [r7, #4]
 80013e2:	3b01      	subs	r3, #1
 80013e4:	f1b3 7f80 	cmp.w	r3, #16777216	; 0x1000000
 80013e8:	d301      	bcc.n	80013ee <SysTick_Config+0x16>
  {
    return (1UL);                                                   /* Reload value impossible */
 80013ea:	2301      	movs	r3, #1
 80013ec:	e00f      	b.n	800140e <SysTick_Config+0x36>
  }

  SysTick->LOAD  = (uint32_t)(ticks - 1UL);                         /* set reload register */
 80013ee:	4a0a      	ldr	r2, [pc, #40]	; (8001418 <SysTick_Config+0x40>)
 80013f0:	687b      	ldr	r3, [r7, #4]
 80013f2:	3b01      	subs	r3, #1
 80013f4:	6053      	str	r3, [r2, #4]
  NVIC_SetPriority (SysTick_IRQn, (1UL << __NVIC_PRIO_BITS) - 1UL); /* set Priority for Systick Interrupt */
 80013f6:	210f      	movs	r1, #15
 80013f8:	f04f 30ff 	mov.w	r0, #4294967295
 80013fc:	f7ff ffc2 	bl	8001384 <__NVIC_SetPriority>
  SysTick->VAL   = 0UL;                                             /* Load the SysTick Counter Value */
 8001400:	4b05      	ldr	r3, [pc, #20]	; (8001418 <SysTick_Config+0x40>)
 8001402:	2200      	movs	r2, #0
 8001404:	609a      	str	r2, [r3, #8]
  SysTick->CTRL  = SysTick_CTRL_CLKSOURCE_Msk |
 8001406:	4b04      	ldr	r3, [pc, #16]	; (8001418 <SysTick_Config+0x40>)
 8001408:	2207      	movs	r2, #7
 800140a:	601a      	str	r2, [r3, #0]
                   SysTick_CTRL_TICKINT_Msk   |
                   SysTick_CTRL_ENABLE_Msk;                         /* Enable SysTick IRQ and SysTick Timer */
  return (0UL);                                                     /* Function successful */
 800140c:	2300      	movs	r3, #0
}
 800140e:	4618      	mov	r0, r3
 8001410:	3708      	adds	r7, #8
 8001412:	46bd      	mov	sp, r7
 8001414:	bd80      	pop	{r7, pc}
 8001416:	bf00      	nop
 8001418:	e000e010 	.word	0xe000e010

0800141c <LL_FLASH_SetLatency>:
  *         @arg @ref LL_FLASH_LATENCY_14
  *         @arg @ref LL_FLASH_LATENCY_15
  * @retval None
  */
__STATIC_INLINE void LL_FLASH_SetLatency(uint32_t Latency)
{
 800141c:	b480      	push	{r7}
 800141e:	b083      	sub	sp, #12
 8001420:	af00      	add	r7, sp, #0
 8001422:	6078      	str	r0, [r7, #4]
  MODIFY_REG(FLASH->ACR, FLASH_ACR_LATENCY, Latency);
 8001424:	4b06      	ldr	r3, [pc, #24]	; (8001440 <LL_FLASH_SetLatency+0x24>)
 8001426:	681b      	ldr	r3, [r3, #0]
 8001428:	f023 020f 	bic.w	r2, r3, #15
 800142c:	4904      	ldr	r1, [pc, #16]	; (8001440 <LL_FLASH_SetLatency+0x24>)
 800142e:	687b      	ldr	r3, [r7, #4]
 8001430:	4313      	orrs	r3, r2
 8001432:	600b      	str	r3, [r1, #0]
}
 8001434:	bf00      	nop
 8001436:	370c      	adds	r7, #12
 8001438:	46bd      	mov	sp, r7
 800143a:	f85d 7b04 	ldr.w	r7, [sp], #4
 800143e:	4770      	bx	lr
 8001440:	40022000 	.word	0x40022000

08001444 <LL_FLASH_GetLatency>:
  *         @arg @ref LL_FLASH_LATENCY_13
  *         @arg @ref LL_FLASH_LATENCY_14
  *         @arg @ref LL_FLASH_LATENCY_15
  */
__STATIC_INLINE uint32_t LL_FLASH_GetLatency(void)
{
 8001444:	b480      	push	{r7}
 8001446:	af00      	add	r7, sp, #0
  return (uint32_t)(READ_BIT(FLASH->ACR, FLASH_ACR_LATENCY));
 8001448:	4b04      	ldr	r3, [pc, #16]	; (800145c <LL_FLASH_GetLatency+0x18>)
 800144a:	681b      	ldr	r3, [r3, #0]
 800144c:	f003 030f 	and.w	r3, r3, #15
}
 8001450:	4618      	mov	r0, r3
 8001452:	46bd      	mov	sp, r7
 8001454:	f85d 7b04 	ldr.w	r7, [sp], #4
 8001458:	4770      	bx	lr
 800145a:	bf00      	nop
 800145c:	40022000 	.word	0x40022000

08001460 <LL_RCC_HSI_Enable>:
  * @brief  Enable HSI oscillator
  * @rmtoll CR           HSION         LL_RCC_HSI_Enable
  * @retval None
  */
__STATIC_INLINE void LL_RCC_HSI_Enable(void)
{
 8001460:	b480      	push	{r7}
 8001462:	af00      	add	r7, sp, #0
  SET_BIT(RCC->CR, RCC_CR_HSION);
 8001464:	4b05      	ldr	r3, [pc, #20]	; (800147c <LL_RCC_HSI_Enable+0x1c>)
 8001466:	681b      	ldr	r3, [r3, #0]
 8001468:	4a04      	ldr	r2, [pc, #16]	; (800147c <LL_RCC_HSI_Enable+0x1c>)
 800146a:	f043 0301 	orr.w	r3, r3, #1
 800146e:	6013      	str	r3, [r2, #0]
}
 8001470:	bf00      	nop
 8001472:	46bd      	mov	sp, r7
 8001474:	f85d 7b04 	ldr.w	r7, [sp], #4
 8001478:	4770      	bx	lr
 800147a:	bf00      	nop
 800147c:	44020c00 	.word	0x44020c00

08001480 <LL_RCC_HSI_IsReady>:
  * @brief  Check if HSI clock is ready
  * @rmtoll CR           HSIRDY        LL_RCC_HSI_IsReady
  * @retval State of bit (1 or 0).
  */
__STATIC_INLINE uint32_t LL_RCC_HSI_IsReady(void)
{
 8001480:	b480      	push	{r7}
 8001482:	af00      	add	r7, sp, #0
  return ((READ_BIT(RCC->CR, RCC_CR_HSIRDY) == RCC_CR_HSIRDY) ? 1UL : 0UL);
 8001484:	4b06      	ldr	r3, [pc, #24]	; (80014a0 <LL_RCC_HSI_IsReady+0x20>)
 8001486:	681b      	ldr	r3, [r3, #0]
 8001488:	f003 0302 	and.w	r3, r3, #2
 800148c:	2b02      	cmp	r3, #2
 800148e:	d101      	bne.n	8001494 <LL_RCC_HSI_IsReady+0x14>
 8001490:	2301      	movs	r3, #1
 8001492:	e000      	b.n	8001496 <LL_RCC_HSI_IsReady+0x16>
 8001494:	2300      	movs	r3, #0
}
 8001496:	4618      	mov	r0, r3
 8001498:	46bd      	mov	sp, r7
 800149a:	f85d 7b04 	ldr.w	r7, [sp], #4
 800149e:	4770      	bx	lr
 80014a0:	44020c00 	.word	0x44020c00

080014a4 <LL_RCC_HSI_SetDivider>:
  *         @arg @ref LL_RCC_HSI_DIV_4
  *         @arg @ref LL_RCC_HSI_DIV_8
  * @retval None.
  */
__STATIC_INLINE void LL_RCC_HSI_SetDivider(uint32_t Divider)
{
 80014a4:	b480      	push	{r7}
 80014a6:	b083      	sub	sp, #12
 80014a8:	af00      	add	r7, sp, #0
 80014aa:	6078      	str	r0, [r7, #4]
  MODIFY_REG(RCC->CR, RCC_CR_HSIDIV, Divider);
 80014ac:	4b06      	ldr	r3, [pc, #24]	; (80014c8 <LL_RCC_HSI_SetDivider+0x24>)
 80014ae:	681b      	ldr	r3, [r3, #0]
 80014b0:	f023 0218 	bic.w	r2, r3, #24
 80014b4:	4904      	ldr	r1, [pc, #16]	; (80014c8 <LL_RCC_HSI_SetDivider+0x24>)
 80014b6:	687b      	ldr	r3, [r7, #4]
 80014b8:	4313      	orrs	r3, r2
 80014ba:	600b      	str	r3, [r1, #0]
}
 80014bc:	bf00      	nop
 80014be:	370c      	adds	r7, #12
 80014c0:	46bd      	mov	sp, r7
 80014c2:	f85d 7b04 	ldr.w	r7, [sp], #4
 80014c6:	4770      	bx	lr
 80014c8:	44020c00 	.word	0x44020c00

080014cc <LL_RCC_HSI_GetDivider>:
  *         @arg @ref LL_RCC_HSI_DIV_2
  *         @arg @ref LL_RCC_HSI_DIV_4
  *         @arg @ref LL_RCC_HSI_DIV_8
  */
__STATIC_INLINE uint32_t LL_RCC_HSI_GetDivider(void)
{
 80014cc:	b480      	push	{r7}
 80014ce:	af00      	add	r7, sp, #0
  return (READ_BIT(RCC->CR, RCC_CR_HSIDIV));
 80014d0:	4b04      	ldr	r3, [pc, #16]	; (80014e4 <LL_RCC_HSI_GetDivider+0x18>)
 80014d2:	681b      	ldr	r3, [r3, #0]
 80014d4:	f003 0318 	and.w	r3, r3, #24
}
 80014d8:	4618      	mov	r0, r3
 80014da:	46bd      	mov	sp, r7
 80014dc:	f85d 7b04 	ldr.w	r7, [sp], #4
 80014e0:	4770      	bx	lr
 80014e2:	bf00      	nop
 80014e4:	44020c00 	.word	0x44020c00

080014e8 <LL_RCC_SetSysClkSource>:
  *         @arg @ref LL_RCC_SYS_CLKSOURCE_HSE
  *         @arg @ref LL_RCC_SYS_CLKSOURCE_PLL1
  * @retval None
  */
__STATIC_INLINE void LL_RCC_SetSysClkSource(uint32_t Source)
{
 80014e8:	b480      	push	{r7}
 80014ea:	b083      	sub	sp, #12
 80014ec:	af00      	add	r7, sp, #0
 80014ee:	6078      	str	r0, [r7, #4]
  MODIFY_REG(RCC->CFGR1, RCC_CFGR1_SW, Source);
 80014f0:	4b06      	ldr	r3, [pc, #24]	; (800150c <LL_RCC_SetSysClkSource+0x24>)
 80014f2:	69db      	ldr	r3, [r3, #28]
 80014f4:	f023 0203 	bic.w	r2, r3, #3
 80014f8:	4904      	ldr	r1, [pc, #16]	; (800150c <LL_RCC_SetSysClkSource+0x24>)
 80014fa:	687b      	ldr	r3, [r7, #4]
 80014fc:	4313      	orrs	r3, r2
 80014fe:	61cb      	str	r3, [r1, #28]
}
 8001500:	bf00      	nop
 8001502:	370c      	adds	r7, #12
 8001504:	46bd      	mov	sp, r7
 8001506:	f85d 7b04 	ldr.w	r7, [sp], #4
 800150a:	4770      	bx	lr
 800150c:	44020c00 	.word	0x44020c00

08001510 <LL_RCC_GetSysClkSource>:
  *         @arg @ref LL_RCC_SYS_CLKSOURCE_STATUS_CSI
  *         @arg @ref LL_RCC_SYS_CLKSOURCE_STATUS_HSE
  *         @arg @ref LL_RCC_SYS_CLKSOURCE_STATUS_PLL1
  */
__STATIC_INLINE uint32_t LL_RCC_GetSysClkSource(void)
{
 8001510:	b480      	push	{r7}
 8001512:	af00      	add	r7, sp, #0
  return (uint32_t)(READ_BIT(RCC->CFGR1, RCC_CFGR1_SWS));
 8001514:	4b04      	ldr	r3, [pc, #16]	; (8001528 <LL_RCC_GetSysClkSource+0x18>)
 8001516:	69db      	ldr	r3, [r3, #28]
 8001518:	f003 0318 	and.w	r3, r3, #24
}
 800151c:	4618      	mov	r0, r3
 800151e:	46bd      	mov	sp, r7
 8001520:	f85d 7b04 	ldr.w	r7, [sp], #4
 8001524:	4770      	bx	lr
 8001526:	bf00      	nop
 8001528:	44020c00 	.word	0x44020c00

0800152c <LL_RCC_SetAHBPrescaler>:
  *         @arg @ref LL_RCC_SYSCLK_DIV_256
  *         @arg @ref LL_RCC_SYSCLK_DIV_512
  * @retval None
  */
__STATIC_INLINE void LL_RCC_SetAHBPrescaler(uint32_t Prescaler)
{
 800152c:	b480      	push	{r7}
 800152e:	b083      	sub	sp, #12
 8001530:	af00      	add	r7, sp, #0
 8001532:	6078      	str	r0, [r7, #4]
  MODIFY_REG(RCC->CFGR2, RCC_CFGR2_HPRE, Prescaler);
 8001534:	4b06      	ldr	r3, [pc, #24]	; (8001550 <LL_RCC_SetAHBPrescaler+0x24>)
 8001536:	6a1b      	ldr	r3, [r3, #32]
 8001538:	f023 020f 	bic.w	r2, r3, #15
 800153c:	4904      	ldr	r1, [pc, #16]	; (8001550 <LL_RCC_SetAHBPrescaler+0x24>)
 800153e:	687b      	ldr	r3, [r7, #4]
 8001540:	4313      	orrs	r3, r2
 8001542:	620b      	str	r3, [r1, #32]
}
 8001544:	bf00      	nop
 8001546:	370c      	adds	r7, #12
 8001548:	46bd      	mov	sp, r7
 800154a:	f85d 7b04 	ldr.w	r7, [sp], #4
 800154e:	4770      	bx	lr
 8001550:	44020c00 	.word	0x44020c00

08001554 <LL_RCC_SetAPB1Prescaler>:
  *         @arg @ref LL_RCC_APB1_DIV_8
  *         @arg @ref LL_RCC_APB1_DIV_16
  * @retval None
  */
__STATIC_INLINE void LL_RCC_SetAPB1Prescaler(uint32_t Prescaler)
{
 8001554:	b480      	push	{r7}
 8001556:	b083      	sub	sp, #12
 8001558:	af00      	add	r7, sp, #0
 800155a:	6078      	str	r0, [r7, #4]
  MODIFY_REG(RCC->CFGR2, RCC_CFGR2_PPRE1, Prescaler);
 800155c:	4b06      	ldr	r3, [pc, #24]	; (8001578 <LL_RCC_SetAPB1Prescaler+0x24>)
 800155e:	6a1b      	ldr	r3, [r3, #32]
 8001560:	f023 0270 	bic.w	r2, r3, #112	; 0x70
 8001564:	4904      	ldr	r1, [pc, #16]	; (8001578 <LL_RCC_SetAPB1Prescaler+0x24>)
 8001566:	687b      	ldr	r3, [r7, #4]
 8001568:	4313      	orrs	r3, r2
 800156a:	620b      	str	r3, [r1, #32]
}
 800156c:	bf00      	nop
 800156e:	370c      	adds	r7, #12
 8001570:	46bd      	mov	sp, r7
 8001572:	f85d 7b04 	ldr.w	r7, [sp], #4
 8001576:	4770      	bx	lr
 8001578:	44020c00 	.word	0x44020c00

0800157c <LL_RCC_SetAPB2Prescaler>:
  *         @arg @ref LL_RCC_APB2_DIV_8
  *         @arg @ref LL_RCC_APB2_DIV_16
  * @retval None
  */
__STATIC_INLINE void LL_RCC_SetAPB2Prescaler(uint32_t Prescaler)
{
 800157c:	b480      	push	{r7}
 800157e:	b083      	sub	sp, #12
 8001580:	af00      	add	r7, sp, #0
 8001582:	6078      	str	r0, [r7, #4]
  MODIFY_REG(RCC->CFGR2, RCC_CFGR2_PPRE2, Prescaler);
 8001584:	4b06      	ldr	r3, [pc, #24]	; (80015a0 <LL_RCC_SetAPB2Prescaler+0x24>)
 8001586:	6a1b      	ldr	r3, [r3, #32]
 8001588:	f423 62e0 	bic.w	r2, r3, #1792	; 0x700
 800158c:	4904      	ldr	r1, [pc, #16]	; (80015a0 <LL_RCC_SetAPB2Prescaler+0x24>)
 800158e:	687b      	ldr	r3, [r7, #4]
 8001590:	4313      	orrs	r3, r2
 8001592:	620b      	str	r3, [r1, #32]
}
 8001594:	bf00      	nop
 8001596:	370c      	adds	r7, #12
 8001598:	46bd      	mov	sp, r7
 800159a:	f85d 7b04 	ldr.w	r7, [sp], #4
 800159e:	4770      	bx	lr
 80015a0:	44020c00 	.word	0x44020c00

080015a4 <LL_RCC_SetAPB3Prescaler>:
  *         @arg @ref LL_RCC_APB3_DIV_8
  *         @arg @ref LL_RCC_APB3_DIV_16
  * @retval None
  */
__STATIC_INLINE void LL_RCC_SetAPB3Prescaler(uint32_t Prescaler)
{
 80015a4:	b480      	push	{r7}
 80015a6:	b083      	sub	sp, #12
 80015a8:	af00      	add	r7, sp, #0
 80015aa:	6078      	str	r0, [r7, #4]
  MODIFY_REG(RCC->CFGR2, RCC_CFGR2_PPRE3, Prescaler);
 80015ac:	4b06      	ldr	r3, [pc, #24]	; (80015c8 <LL_RCC_SetAPB3Prescaler+0x24>)
 80015ae:	6a1b      	ldr	r3, [r3, #32]
 80015b0:	f423 42e0 	bic.w	r2, r3, #28672	; 0x7000
 80015b4:	4904      	ldr	r1, [pc, #16]	; (80015c8 <LL_RCC_SetAPB3Prescaler+0x24>)
 80015b6:	687b      	ldr	r3, [r7, #4]
 80015b8:	4313      	orrs	r3, r2
 80015ba:	620b      	str	r3, [r1, #32]
}
 80015bc:	bf00      	nop
 80015be:	370c      	adds	r7, #12
 80015c0:	46bd      	mov	sp, r7
 80015c2:	f85d 7b04 	ldr.w	r7, [sp], #4
 80015c6:	4770      	bx	lr
 80015c8:	44020c00 	.word	0x44020c00

080015cc <LL_RCC_SetClockSource>:
  *         (**) : For stm32h503xx family line only.
  *
  * @retval None
  */
__STATIC_INLINE void LL_RCC_SetClockSource(uint32_t ClkSource)
{
 80015cc:	b480      	push	{r7}
 80015ce:	b085      	sub	sp, #20
 80015d0:	af00      	add	r7, sp, #0
 80015d2:	6078      	str	r0, [r7, #4]
  uint32_t *pReg = (uint32_t *)((uint32_t)&RCC->CCIPR1 + LL_CLKSOURCE_REG(ClkSource));
 80015d4:	687b      	ldr	r3, [r7, #4]
 80015d6:	b2da      	uxtb	r2, r3
 80015d8:	4b10      	ldr	r3, [pc, #64]	; (800161c <LL_RCC_SetClockSource+0x50>)
 80015da:	4413      	add	r3, r2
 80015dc:	60fb      	str	r3, [r7, #12]
  MODIFY_REG(*pReg, LL_CLKSOURCE_MASK(ClkSource), LL_CLKSOURCE_CONFIG(ClkSource));
 80015de:	68fb      	ldr	r3, [r7, #12]
 80015e0:	681a      	ldr	r2, [r3, #0]
 80015e2:	687b      	ldr	r3, [r7, #4]
 80015e4:	0e19      	lsrs	r1, r3, #24
 80015e6:	687b      	ldr	r3, [r7, #4]
 80015e8:	0a1b      	lsrs	r3, r3, #8
 80015ea:	f003 031f 	and.w	r3, r3, #31
 80015ee:	fa01 f303 	lsl.w	r3, r1, r3
 80015f2:	43db      	mvns	r3, r3
 80015f4:	401a      	ands	r2, r3
 80015f6:	687b      	ldr	r3, [r7, #4]
 80015f8:	0c1b      	lsrs	r3, r3, #16
 80015fa:	b2d9      	uxtb	r1, r3
 80015fc:	687b      	ldr	r3, [r7, #4]
 80015fe:	0a1b      	lsrs	r3, r3, #8
 8001600:	f003 031f 	and.w	r3, r3, #31
 8001604:	fa01 f303 	lsl.w	r3, r1, r3
 8001608:	431a      	orrs	r2, r3
 800160a:	68fb      	ldr	r3, [r7, #12]
 800160c:	601a      	str	r2, [r3, #0]
}
 800160e:	bf00      	nop
 8001610:	3714      	adds	r7, #20
 8001612:	46bd      	mov	sp, r7
 8001614:	f85d 7b04 	ldr.w	r7, [sp], #4
 8001618:	4770      	bx	lr
 800161a:	bf00      	nop
 800161c:	44020cd8 	.word	0x44020cd8

08001620 <LL_RCC_SetUSARTClockSource>:
  *
  *  (*)  : For stm32h56xxx and stm32h57xxx family lines only.
  * @retval None
  */
__STATIC_INLINE void LL_RCC_SetUSARTClockSource(uint32_t USARTxSource)
{
 8001620:	b580      	push	{r7, lr}
 8001622:	b082      	sub	sp, #8
 8001624:	af00      	add	r7, sp, #0
 8001626:	6078      	str	r0, [r7, #4]
  LL_RCC_SetClockSource(USARTxSource);
 8001628:	6878      	ldr	r0, [r7, #4]
 800162a:	f7ff ffcf 	bl	80015cc <LL_RCC_SetClockSource>
}
 800162e:	bf00      	nop
 8001630:	3708      	adds	r7, #8
 8001632:	46bd      	mov	sp, r7
 8001634:	bd80      	pop	{r7, pc}

08001636 <LL_RCC_SetI2CClockSource>:
  *  (*)  : For stm32h56xxx and stm32h57xxx family lines only.
  *  (**) : For stm32h503xx family line only.
  * @retval None
  */
__STATIC_INLINE void LL_RCC_SetI2CClockSource(uint32_t I2CxSource)
{
 8001636:	b580      	push	{r7, lr}
 8001638:	b082      	sub	sp, #8
 800163a:	af00      	add	r7, sp, #0
 800163c:	6078      	str	r0, [r7, #4]
  LL_RCC_SetClockSource(I2CxSource);
 800163e:	6878      	ldr	r0, [r7, #4]
 8001640:	f7ff ffc4 	bl	80015cc <LL_RCC_SetClockSource>
}
 8001644:	bf00      	nop
 8001646:	3708      	adds	r7, #8
 8001648:	46bd      	mov	sp, r7
 800164a:	bd80      	pop	{r7, pc}

0800164c <LL_RCC_SetI3CClockSource>:
  *  (*)  : For stm32h56xxx, stm32h57xxx, stm32h5exxx and stm32h5fxxx family lines.
  *  (**) : For stm32h503xx family line.
  *  (***)  : For stm32h5exxx and stm32h5fxxx family lines.
  */
__STATIC_INLINE void LL_RCC_SetI3CClockSource(uint32_t I3CxSource)
{
 800164c:	b580      	push	{r7, lr}
 800164e:	b082      	sub	sp, #8
 8001650:	af00      	add	r7, sp, #0
 8001652:	6078      	str	r0, [r7, #4]
  LL_RCC_SetClockSource(I3CxSource);
 8001654:	6878      	ldr	r0, [r7, #4]
 8001656:	f7ff ffb9 	bl	80015cc <LL_RCC_SetClockSource>
}
 800165a:	bf00      	nop
 800165c:	3708      	adds	r7, #8
 800165e:	46bd      	mov	sp, r7
 8001660:	bd80      	pop	{r7, pc}
	...

08001664 <LL_RCC_PLL1_Enable>:
  * @brief  Enable PLL1
  * @rmtoll CR           PLL1ON         LL_RCC_PLL1_Enable
  * @retval None
  */
__STATIC_INLINE void LL_RCC_PLL1_Enable(void)
{
 8001664:	b480      	push	{r7}
 8001666:	af00      	add	r7, sp, #0
  SET_BIT(RCC->CR, RCC_CR_PLL1ON);
 8001668:	4b05      	ldr	r3, [pc, #20]	; (8001680 <LL_RCC_PLL1_Enable+0x1c>)
 800166a:	681b      	ldr	r3, [r3, #0]
 800166c:	4a04      	ldr	r2, [pc, #16]	; (8001680 <LL_RCC_PLL1_Enable+0x1c>)
 800166e:	f043 7380 	orr.w	r3, r3, #16777216	; 0x1000000
 8001672:	6013      	str	r3, [r2, #0]
}
 8001674:	bf00      	nop
 8001676:	46bd      	mov	sp, r7
 8001678:	f85d 7b04 	ldr.w	r7, [sp], #4
 800167c:	4770      	bx	lr
 800167e:	bf00      	nop
 8001680:	44020c00 	.word	0x44020c00

08001684 <LL_RCC_PLL1_Disable>:
  * @note Cannot be disabled if the PLL1 clock is used as the system clock
  * @rmtoll CR           PLLON         LL_RCC_PLL1_Disable
  * @retval None
  */
__STATIC_INLINE void LL_RCC_PLL1_Disable(void)
{
 8001684:	b480      	push	{r7}
 8001686:	af00      	add	r7, sp, #0
  CLEAR_BIT(RCC->CR, RCC_CR_PLL1ON);
 8001688:	4b05      	ldr	r3, [pc, #20]	; (80016a0 <LL_RCC_PLL1_Disable+0x1c>)
 800168a:	681b      	ldr	r3, [r3, #0]
 800168c:	4a04      	ldr	r2, [pc, #16]	; (80016a0 <LL_RCC_PLL1_Disable+0x1c>)
 800168e:	f023 7380 	bic.w	r3, r3, #16777216	; 0x1000000
 8001692:	6013      	str	r3, [r2, #0]
}
 8001694:	bf00      	nop
 8001696:	46bd      	mov	sp, r7
 8001698:	f85d 7b04 	ldr.w	r7, [sp], #4
 800169c:	4770      	bx	lr
 800169e:	bf00      	nop
 80016a0:	44020c00 	.word	0x44020c00

080016a4 <LL_RCC_PLL1_IsReady>:
  * @brief  Check if PLL1 Ready
  * @rmtoll CR           PLL1RDY        LL_RCC_PLL1_IsReady
  * @retval State of bit (1 or 0).
  */
__STATIC_INLINE uint32_t LL_RCC_PLL1_IsReady(void)
{
 80016a4:	b480      	push	{r7}
 80016a6:	af00      	add	r7, sp, #0
  return ((READ_BIT(RCC->CR, RCC_CR_PLL1RDY) == RCC_CR_PLL1RDY) ? 1UL : 0UL);
 80016a8:	4b07      	ldr	r3, [pc, #28]	; (80016c8 <LL_RCC_PLL1_IsReady+0x24>)
 80016aa:	681b      	ldr	r3, [r3, #0]
 80016ac:	f003 7300 	and.w	r3, r3, #33554432	; 0x2000000
 80016b0:	f1b3 7f00 	cmp.w	r3, #33554432	; 0x2000000
 80016b4:	d101      	bne.n	80016ba <LL_RCC_PLL1_IsReady+0x16>
 80016b6:	2301      	movs	r3, #1
 80016b8:	e000      	b.n	80016bc <LL_RCC_PLL1_IsReady+0x18>
 80016ba:	2300      	movs	r3, #0
}
 80016bc:	4618      	mov	r0, r3
 80016be:	46bd      	mov	sp, r7
 80016c0:	f85d 7b04 	ldr.w	r7, [sp], #4
 80016c4:	4770      	bx	lr
 80016c6:	bf00      	nop
 80016c8:	44020c00 	.word	0x44020c00

080016cc <LL_RCC_PLL1P_Enable>:
  * @note   This API shall be called only when PLL1 is disabled.
  * @rmtoll PLL1CFGR      PLL1PEN        LL_RCC_PLL1P_Enable
  * @retval None
  */
__STATIC_INLINE void LL_RCC_PLL1P_Enable(void)
{
 80016cc:	b480      	push	{r7}
 80016ce:	af00      	add	r7, sp, #0
  SET_BIT(RCC->PLL1CFGR, RCC_PLL1CFGR_PLL1PEN);
 80016d0:	4b05      	ldr	r3, [pc, #20]	; (80016e8 <LL_RCC_PLL1P_Enable+0x1c>)
 80016d2:	6a9b      	ldr	r3, [r3, #40]	; 0x28
 80016d4:	4a04      	ldr	r2, [pc, #16]	; (80016e8 <LL_RCC_PLL1P_Enable+0x1c>)
 80016d6:	f443 3380 	orr.w	r3, r3, #65536	; 0x10000
 80016da:	6293      	str	r3, [r2, #40]	; 0x28
}
 80016dc:	bf00      	nop
 80016de:	46bd      	mov	sp, r7
 80016e0:	f85d 7b04 	ldr.w	r7, [sp], #4
 80016e4:	4770      	bx	lr
 80016e6:	bf00      	nop
 80016e8:	44020c00 	.word	0x44020c00

080016ec <LL_RCC_PLL1Q_Enable>:
  * @note   This API shall be called only when PLL1 is disabled.
  * @rmtoll PLL1CFGR      PLL1QEN        LL_RCC_PLL1Q_Enable
  * @retval None
  */
__STATIC_INLINE void LL_RCC_PLL1Q_Enable(void)
{
 80016ec:	b480      	push	{r7}
 80016ee:	af00      	add	r7, sp, #0
  SET_BIT(RCC->PLL1CFGR, RCC_PLL1CFGR_PLL1QEN);
 80016f0:	4b05      	ldr	r3, [pc, #20]	; (8001708 <LL_RCC_PLL1Q_Enable+0x1c>)
 80016f2:	6a9b      	ldr	r3, [r3, #40]	; 0x28
 80016f4:	4a04      	ldr	r2, [pc, #16]	; (8001708 <LL_RCC_PLL1Q_Enable+0x1c>)
 80016f6:	f443 3300 	orr.w	r3, r3, #131072	; 0x20000
 80016fa:	6293      	str	r3, [r2, #40]	; 0x28
}
 80016fc:	bf00      	nop
 80016fe:	46bd      	mov	sp, r7
 8001700:	f85d 7b04 	ldr.w	r7, [sp], #4
 8001704:	4770      	bx	lr
 8001706:	bf00      	nop
 8001708:	44020c00 	.word	0x44020c00

0800170c <LL_RCC_PLL1R_Enable>:
  * @note   This API shall be called only when PLL1 is disabled.
  * @rmtoll PLL1CFGR      PLL1REN        LL_RCC_PLL1R_Enable
  * @retval None
  */
__STATIC_INLINE void LL_RCC_PLL1R_Enable(void)
{
 800170c:	b480      	push	{r7}
 800170e:	af00      	add	r7, sp, #0
  SET_BIT(RCC->PLL1CFGR, RCC_PLL1CFGR_PLL1REN);
 8001710:	4b05      	ldr	r3, [pc, #20]	; (8001728 <LL_RCC_PLL1R_Enable+0x1c>)
 8001712:	6a9b      	ldr	r3, [r3, #40]	; 0x28
 8001714:	4a04      	ldr	r2, [pc, #16]	; (8001728 <LL_RCC_PLL1R_Enable+0x1c>)
 8001716:	f443 2380 	orr.w	r3, r3, #262144	; 0x40000
 800171a:	6293      	str	r3, [r2, #40]	; 0x28
}
 800171c:	bf00      	nop
 800171e:	46bd      	mov	sp, r7
 8001720:	f85d 7b04 	ldr.w	r7, [sp], #4
 8001724:	4770      	bx	lr
 8001726:	bf00      	nop
 8001728:	44020c00 	.word	0x44020c00

0800172c <LL_RCC_PLL1_SetSource>:
  *         @arg @ref LL_RCC_PLL1SOURCE_CSI
  *         @arg @ref LL_RCC_PLL1SOURCE_HSE
  * @retval None
  */
__STATIC_INLINE void LL_RCC_PLL1_SetSource(uint32_t PLL1Source)
{
 800172c:	b480      	push	{r7}
 800172e:	b083      	sub	sp, #12
 8001730:	af00      	add	r7, sp, #0
 8001732:	6078      	str	r0, [r7, #4]
  MODIFY_REG(RCC->PLL1CFGR, RCC_PLL1CFGR_PLL1SRC, PLL1Source);
 8001734:	4b06      	ldr	r3, [pc, #24]	; (8001750 <LL_RCC_PLL1_SetSource+0x24>)
 8001736:	6a9b      	ldr	r3, [r3, #40]	; 0x28
 8001738:	f023 0203 	bic.w	r2, r3, #3
 800173c:	4904      	ldr	r1, [pc, #16]	; (8001750 <LL_RCC_PLL1_SetSource+0x24>)
 800173e:	687b      	ldr	r3, [r7, #4]
 8001740:	4313      	orrs	r3, r2
 8001742:	628b      	str	r3, [r1, #40]	; 0x28
}
 8001744:	bf00      	nop
 8001746:	370c      	adds	r7, #12
 8001748:	46bd      	mov	sp, r7
 800174a:	f85d 7b04 	ldr.w	r7, [sp], #4
 800174e:	4770      	bx	lr
 8001750:	44020c00 	.word	0x44020c00

08001754 <LL_RCC_PLL1_SetN>:
  * @brief  Set Main PLL1 multiplication factor for VCO
  * @rmtoll PLL1CFGR      PLL1N          LL_RCC_PLL1_SetN
  * @param PLL1N parameter can be a value between 4 and 512
  */
__STATIC_INLINE void LL_RCC_PLL1_SetN(uint32_t PLL1N)
{
 8001754:	b480      	push	{r7}
 8001756:	b083      	sub	sp, #12
 8001758:	af00      	add	r7, sp, #0
 800175a:	6078      	str	r0, [r7, #4]
  MODIFY_REG(RCC->PLL1DIVR, RCC_PLL1DIVR_PLL1N, (PLL1N - 1UL) << RCC_PLL1DIVR_PLL1N_Pos);
 800175c:	4b08      	ldr	r3, [pc, #32]	; (8001780 <LL_RCC_PLL1_SetN+0x2c>)
 800175e:	6b5b      	ldr	r3, [r3, #52]	; 0x34
 8001760:	f423 73ff 	bic.w	r3, r3, #510	; 0x1fe
 8001764:	f023 0301 	bic.w	r3, r3, #1
 8001768:	687a      	ldr	r2, [r7, #4]
 800176a:	3a01      	subs	r2, #1
 800176c:	4904      	ldr	r1, [pc, #16]	; (8001780 <LL_RCC_PLL1_SetN+0x2c>)
 800176e:	4313      	orrs	r3, r2
 8001770:	634b      	str	r3, [r1, #52]	; 0x34
}
 8001772:	bf00      	nop
 8001774:	370c      	adds	r7, #12
 8001776:	46bd      	mov	sp, r7
 8001778:	f85d 7b04 	ldr.w	r7, [sp], #4
 800177c:	4770      	bx	lr
 800177e:	bf00      	nop
 8001780:	44020c00 	.word	0x44020c00

08001784 <LL_RCC_PLL1_SetP>:
  * @note Used for System clock
  * @rmtoll PLL1CFGR      PLL1P       LL_RCC_PLL1_SetP
  * @param PLL1P parameter can be a value between 2 and 128 (odd value not allowed)
  */
__STATIC_INLINE void LL_RCC_PLL1_SetP(uint32_t PLL1P)
{
 8001784:	b480      	push	{r7}
 8001786:	b083      	sub	sp, #12
 8001788:	af00      	add	r7, sp, #0
 800178a:	6078      	str	r0, [r7, #4]
  MODIFY_REG(RCC->PLL1DIVR, RCC_PLL1DIVR_PLL1P, (PLL1P - 1UL) << RCC_PLL1DIVR_PLL1P_Pos);
 800178c:	4b07      	ldr	r3, [pc, #28]	; (80017ac <LL_RCC_PLL1_SetP+0x28>)
 800178e:	6b5b      	ldr	r3, [r3, #52]	; 0x34
 8001790:	f423 427e 	bic.w	r2, r3, #65024	; 0xfe00
 8001794:	687b      	ldr	r3, [r7, #4]
 8001796:	3b01      	subs	r3, #1
 8001798:	025b      	lsls	r3, r3, #9
 800179a:	4904      	ldr	r1, [pc, #16]	; (80017ac <LL_RCC_PLL1_SetP+0x28>)
 800179c:	4313      	orrs	r3, r2
 800179e:	634b      	str	r3, [r1, #52]	; 0x34
}
 80017a0:	bf00      	nop
 80017a2:	370c      	adds	r7, #12
 80017a4:	46bd      	mov	sp, r7
 80017a6:	f85d 7b04 	ldr.w	r7, [sp], #4
 80017aa:	4770      	bx	lr
 80017ac:	44020c00 	.word	0x44020c00

080017b0 <LL_RCC_PLL1_SetQ>:
  * @note Used for peripherals clocks
  * @rmtoll PLLCFGR      PLL1Q          LL_RCC_PLL1_SetQ
  * @param PLL1Q parameter can be a value between 1 and 128
  */
__STATIC_INLINE void LL_RCC_PLL1_SetQ(uint32_t PLL1Q)
{
 80017b0:	b480      	push	{r7}
 80017b2:	b083      	sub	sp, #12
 80017b4:	af00      	add	r7, sp, #0
 80017b6:	6078      	str	r0, [r7, #4]
  MODIFY_REG(RCC->PLL1DIVR, RCC_PLL1DIVR_PLL1Q, (PLL1Q - 1UL) << RCC_PLL1DIVR_PLL1Q_Pos);
 80017b8:	4b07      	ldr	r3, [pc, #28]	; (80017d8 <LL_RCC_PLL1_SetQ+0x28>)
 80017ba:	6b5b      	ldr	r3, [r3, #52]	; 0x34
 80017bc:	f423 02fe 	bic.w	r2, r3, #8323072	; 0x7f0000
 80017c0:	687b      	ldr	r3, [r7, #4]
 80017c2:	3b01      	subs	r3, #1
 80017c4:	041b      	lsls	r3, r3, #16
 80017c6:	4904      	ldr	r1, [pc, #16]	; (80017d8 <LL_RCC_PLL1_SetQ+0x28>)
 80017c8:	4313      	orrs	r3, r2
 80017ca:	634b      	str	r3, [r1, #52]	; 0x34
}
 80017cc:	bf00      	nop
 80017ce:	370c      	adds	r7, #12
 80017d0:	46bd      	mov	sp, r7
 80017d2:	f85d 7b04 	ldr.w	r7, [sp], #4
 80017d6:	4770      	bx	lr
 80017d8:	44020c00 	.word	0x44020c00

080017dc <LL_RCC_PLL1_SetR>:
  * @note Used for trace
  * @rmtoll PLL1DIVR      PLL1R          LL_RCC_PLL1_SetR
  * @param PLL1R parameter can be a value between 1 and 128
  */
__STATIC_INLINE void LL_RCC_PLL1_SetR(uint32_t PLL1R)
{
 80017dc:	b480      	push	{r7}
 80017de:	b083      	sub	sp, #12
 80017e0:	af00      	add	r7, sp, #0
 80017e2:	6078      	str	r0, [r7, #4]
  MODIFY_REG(RCC->PLL1DIVR, RCC_PLL1DIVR_PLL1R, (PLL1R - 1UL) << RCC_PLL1DIVR_PLL1R_Pos);
 80017e4:	4b07      	ldr	r3, [pc, #28]	; (8001804 <LL_RCC_PLL1_SetR+0x28>)
 80017e6:	6b5b      	ldr	r3, [r3, #52]	; 0x34
 80017e8:	f023 42fe 	bic.w	r2, r3, #2130706432	; 0x7f000000
 80017ec:	687b      	ldr	r3, [r7, #4]
 80017ee:	3b01      	subs	r3, #1
 80017f0:	061b      	lsls	r3, r3, #24
 80017f2:	4904      	ldr	r1, [pc, #16]	; (8001804 <LL_RCC_PLL1_SetR+0x28>)
 80017f4:	4313      	orrs	r3, r2
 80017f6:	634b      	str	r3, [r1, #52]	; 0x34
}
 80017f8:	bf00      	nop
 80017fa:	370c      	adds	r7, #12
 80017fc:	46bd      	mov	sp, r7
 80017fe:	f85d 7b04 	ldr.w	r7, [sp], #4
 8001802:	4770      	bx	lr
 8001804:	44020c00 	.word	0x44020c00

08001808 <LL_RCC_PLL1_SetM>:
  * @brief  Set Division factor for the main PLL and other PLL
  * @rmtoll PLL1CFGR      PLL1M          LL_RCC_PLL1_SetM
  * @param PLL1M parameter can be a value between 1 and 63
  */
__STATIC_INLINE void LL_RCC_PLL1_SetM(uint32_t PLL1M)
{
 8001808:	b480      	push	{r7}
 800180a:	b083      	sub	sp, #12
 800180c:	af00      	add	r7, sp, #0
 800180e:	6078      	str	r0, [r7, #4]
  MODIFY_REG(RCC->PLL1CFGR, RCC_PLL1CFGR_PLL1M, PLL1M  << RCC_PLL1CFGR_PLL1M_Pos);
 8001810:	4b07      	ldr	r3, [pc, #28]	; (8001830 <LL_RCC_PLL1_SetM+0x28>)
 8001812:	6a9b      	ldr	r3, [r3, #40]	; 0x28
 8001814:	f423 527c 	bic.w	r2, r3, #16128	; 0x3f00
 8001818:	687b      	ldr	r3, [r7, #4]
 800181a:	021b      	lsls	r3, r3, #8
 800181c:	4904      	ldr	r1, [pc, #16]	; (8001830 <LL_RCC_PLL1_SetM+0x28>)
 800181e:	4313      	orrs	r3, r2
 8001820:	628b      	str	r3, [r1, #40]	; 0x28
}
 8001822:	bf00      	nop
 8001824:	370c      	adds	r7, #12
 8001826:	46bd      	mov	sp, r7
 8001828:	f85d 7b04 	ldr.w	r7, [sp], #4
 800182c:	4770      	bx	lr
 800182e:	bf00      	nop
 8001830:	44020c00 	.word	0x44020c00

08001834 <LL_RCC_PLL1FRACN_Disable>:
  * @brief  Disable PLL1 FRACN
  * @rmtoll PLL1CFGR           PLL1FRACEN         LL_RCC_PLL1FRACN_Disable
  * @retval None
  */
__STATIC_INLINE void LL_RCC_PLL1FRACN_Disable(void)
{
 8001834:	b480      	push	{r7}
 8001836:	af00      	add	r7, sp, #0
  CLEAR_BIT(RCC->PLL1CFGR, RCC_PLL1CFGR_PLL1FRACEN);
 8001838:	4b05      	ldr	r3, [pc, #20]	; (8001850 <LL_RCC_PLL1FRACN_Disable+0x1c>)
 800183a:	6a9b      	ldr	r3, [r3, #40]	; 0x28
 800183c:	4a04      	ldr	r2, [pc, #16]	; (8001850 <LL_RCC_PLL1FRACN_Disable+0x1c>)
 800183e:	f023 0310 	bic.w	r3, r3, #16
 8001842:	6293      	str	r3, [r2, #40]	; 0x28
}
 8001844:	bf00      	nop
 8001846:	46bd      	mov	sp, r7
 8001848:	f85d 7b04 	ldr.w	r7, [sp], #4
 800184c:	4770      	bx	lr
 800184e:	bf00      	nop
 8001850:	44020c00 	.word	0x44020c00

08001854 <LL_RCC_PLL1_SetVCOInputRange>:
  *         @arg @ref LL_RCC_PLLINPUTRANGE_4_8
  *         @arg @ref LL_RCC_PLLINPUTRANGE_8_16
  * @retval None
  */
__STATIC_INLINE void LL_RCC_PLL1_SetVCOInputRange(uint32_t InputRange)
{
 8001854:	b480      	push	{r7}
 8001856:	b083      	sub	sp, #12
 8001858:	af00      	add	r7, sp, #0
 800185a:	6078      	str	r0, [r7, #4]
  MODIFY_REG(RCC->PLL1CFGR, RCC_PLL1CFGR_PLL1RGE, InputRange << RCC_PLL1CFGR_PLL1RGE_Pos);
 800185c:	4b07      	ldr	r3, [pc, #28]	; (800187c <LL_RCC_PLL1_SetVCOInputRange+0x28>)
 800185e:	6a9b      	ldr	r3, [r3, #40]	; 0x28
 8001860:	f023 020c 	bic.w	r2, r3, #12
 8001864:	687b      	ldr	r3, [r7, #4]
 8001866:	009b      	lsls	r3, r3, #2
 8001868:	4904      	ldr	r1, [pc, #16]	; (800187c <LL_RCC_PLL1_SetVCOInputRange+0x28>)
 800186a:	4313      	orrs	r3, r2
 800186c:	628b      	str	r3, [r1, #40]	; 0x28
}
 800186e:	bf00      	nop
 8001870:	370c      	adds	r7, #12
 8001872:	46bd      	mov	sp, r7
 8001874:	f85d 7b04 	ldr.w	r7, [sp], #4
 8001878:	4770      	bx	lr
 800187a:	bf00      	nop
 800187c:	44020c00 	.word	0x44020c00

08001880 <LL_RCC_PLL1_SetVCOOutputRange>:
  *         @arg @ref LL_RCC_PLLVCORANGE_WIDE
  *         @arg @ref LL_RCC_PLLVCORANGE_MEDIUM
  * @retval None
  */
__STATIC_INLINE void LL_RCC_PLL1_SetVCOOutputRange(uint32_t VCORange)
{
 8001880:	b480      	push	{r7}
 8001882:	b083      	sub	sp, #12
 8001884:	af00      	add	r7, sp, #0
 8001886:	6078      	str	r0, [r7, #4]
  MODIFY_REG(RCC->PLL1CFGR, RCC_PLL1CFGR_PLL1VCOSEL, VCORange << RCC_PLL1CFGR_PLL1VCOSEL_Pos);
 8001888:	4b07      	ldr	r3, [pc, #28]	; (80018a8 <LL_RCC_PLL1_SetVCOOutputRange+0x28>)
 800188a:	6a9b      	ldr	r3, [r3, #40]	; 0x28
 800188c:	f023 0220 	bic.w	r2, r3, #32
 8001890:	687b      	ldr	r3, [r7, #4]
 8001892:	015b      	lsls	r3, r3, #5
 8001894:	4904      	ldr	r1, [pc, #16]	; (80018a8 <LL_RCC_PLL1_SetVCOOutputRange+0x28>)
 8001896:	4313      	orrs	r3, r2
 8001898:	628b      	str	r3, [r1, #40]	; 0x28
}
 800189a:	bf00      	nop
 800189c:	370c      	adds	r7, #12
 800189e:	46bd      	mov	sp, r7
 80018a0:	f85d 7b04 	ldr.w	r7, [sp], #4
 80018a4:	4770      	bx	lr
 80018a6:	bf00      	nop
 80018a8:	44020c00 	.word	0x44020c00

080018ac <LL_RCC_PLL3_Enable>:
  * @brief  Enable PLL3
  * @rmtoll CR           PLL3ON     LL_RCC_PLL3_Enable
  * @retval None
  */
__STATIC_INLINE void LL_RCC_PLL3_Enable(void)
{
 80018ac:	b480      	push	{r7}
 80018ae:	af00      	add	r7, sp, #0
  SET_BIT(RCC->CR, RCC_CR_PLL3ON);
 80018b0:	4b05      	ldr	r3, [pc, #20]	; (80018c8 <LL_RCC_PLL3_Enable+0x1c>)
 80018b2:	681b      	ldr	r3, [r3, #0]
 80018b4:	4a04      	ldr	r2, [pc, #16]	; (80018c8 <LL_RCC_PLL3_Enable+0x1c>)
 80018b6:	f043 5380 	orr.w	r3, r3, #268435456	; 0x10000000
 80018ba:	6013      	str	r3, [r2, #0]
}
 80018bc:	bf00      	nop
 80018be:	46bd      	mov	sp, r7
 80018c0:	f85d 7b04 	ldr.w	r7, [sp], #4
 80018c4:	4770      	bx	lr
 80018c6:	bf00      	nop
 80018c8:	44020c00 	.word	0x44020c00

080018cc <LL_RCC_PLL3_Disable>:
  * @brief  Disable PLL3
  * @rmtoll CR           PLL3ON     LL_RCC_PLL3_Disable
  * @retval None
  */
__STATIC_INLINE void LL_RCC_PLL3_Disable(void)
{
 80018cc:	b480      	push	{r7}
 80018ce:	af00      	add	r7, sp, #0
  CLEAR_BIT(RCC->CR, RCC_CR_PLL3ON);
 80018d0:	4b05      	ldr	r3, [pc, #20]	; (80018e8 <LL_RCC_PLL3_Disable+0x1c>)
 80018d2:	681b      	ldr	r3, [r3, #0]
 80018d4:	4a04      	ldr	r2, [pc, #16]	; (80018e8 <LL_RCC_PLL3_Disable+0x1c>)
 80018d6:	f023 5380 	bic.w	r3, r3, #268435456	; 0x10000000
 80018da:	6013      	str	r3, [r2, #0]
}
 80018dc:	bf00      	nop
 80018de:	46bd      	mov	sp, r7
 80018e0:	f85d 7b04 	ldr.w	r7, [sp], #4
 80018e4:	4770      	bx	lr
 80018e6:	bf00      	nop
 80018e8:	44020c00 	.word	0x44020c00

080018ec <LL_RCC_PLL3_IsReady>:
  * @brief  Check if PLL3 is Ready
  * @rmtoll CR           PLL3RDY    LL_RCC_PLL3_IsReady
  * @retval State of bit (1 or 0).
  */
__STATIC_INLINE uint32_t LL_RCC_PLL3_IsReady(void)
{
 80018ec:	b480      	push	{r7}
 80018ee:	af00      	add	r7, sp, #0
  return ((READ_BIT(RCC->CR, RCC_CR_PLL3RDY) == RCC_CR_PLL3RDY) ? 1UL : 0UL);
 80018f0:	4b07      	ldr	r3, [pc, #28]	; (8001910 <LL_RCC_PLL3_IsReady+0x24>)
 80018f2:	681b      	ldr	r3, [r3, #0]
 80018f4:	f003 5300 	and.w	r3, r3, #536870912	; 0x20000000
 80018f8:	f1b3 5f00 	cmp.w	r3, #536870912	; 0x20000000
 80018fc:	d101      	bne.n	8001902 <LL_RCC_PLL3_IsReady+0x16>
 80018fe:	2301      	movs	r3, #1
 8001900:	e000      	b.n	8001904 <LL_RCC_PLL3_IsReady+0x18>
 8001902:	2300      	movs	r3, #0
}
 8001904:	4618      	mov	r0, r3
 8001906:	46bd      	mov	sp, r7
 8001908:	f85d 7b04 	ldr.w	r7, [sp], #4
 800190c:	4770      	bx	lr
 800190e:	bf00      	nop
 8001910:	44020c00 	.word	0x44020c00

08001914 <LL_RCC_PLL3_SetSource>:
  *         @arg @ref LL_RCC_PLL3SOURCE_HSI
  *         @arg @ref LL_RCC_PLL3SOURCE_HSE
  * @retval None
  */
__STATIC_INLINE void LL_RCC_PLL3_SetSource(uint32_t PLLSource)
{
 8001914:	b480      	push	{r7}
 8001916:	b083      	sub	sp, #12
 8001918:	af00      	add	r7, sp, #0
 800191a:	6078      	str	r0, [r7, #4]
  MODIFY_REG(RCC->PLL3CFGR, RCC_PLL3CFGR_PLL3SRC, PLLSource);
 800191c:	4b06      	ldr	r3, [pc, #24]	; (8001938 <LL_RCC_PLL3_SetSource+0x24>)
 800191e:	6b1b      	ldr	r3, [r3, #48]	; 0x30
 8001920:	f023 0203 	bic.w	r2, r3, #3
 8001924:	4904      	ldr	r1, [pc, #16]	; (8001938 <LL_RCC_PLL3_SetSource+0x24>)
 8001926:	687b      	ldr	r3, [r7, #4]
 8001928:	4313      	orrs	r3, r2
 800192a:	630b      	str	r3, [r1, #48]	; 0x30
}
 800192c:	bf00      	nop
 800192e:	370c      	adds	r7, #12
 8001930:	46bd      	mov	sp, r7
 8001932:	f85d 7b04 	ldr.w	r7, [sp], #4
 8001936:	4770      	bx	lr
 8001938:	44020c00 	.word	0x44020c00

0800193c <LL_RCC_PLL3_SetN>:
  * @brief  Set PLL3 multiplication factor N
  * @rmtoll PLL3CFGR      PLL3N          LL_RCC_PLL3_SetN
  * @param PLL3N parameter can be a value between 4 and 512
  */
__STATIC_INLINE void LL_RCC_PLL3_SetN(uint32_t PLL3N)
{
 800193c:	b480      	push	{r7}
 800193e:	b083      	sub	sp, #12
 8001940:	af00      	add	r7, sp, #0
 8001942:	6078      	str	r0, [r7, #4]
  MODIFY_REG(RCC->PLL3DIVR, RCC_PLL3DIVR_PLL3N, (PLL3N - 1UL) << RCC_PLL3DIVR_PLL3N_Pos);
 8001944:	4b08      	ldr	r3, [pc, #32]	; (8001968 <LL_RCC_PLL3_SetN+0x2c>)
 8001946:	6c5b      	ldr	r3, [r3, #68]	; 0x44
 8001948:	f423 73ff 	bic.w	r3, r3, #510	; 0x1fe
 800194c:	f023 0301 	bic.w	r3, r3, #1
 8001950:	687a      	ldr	r2, [r7, #4]
 8001952:	3a01      	subs	r2, #1
 8001954:	4904      	ldr	r1, [pc, #16]	; (8001968 <LL_RCC_PLL3_SetN+0x2c>)
 8001956:	4313      	orrs	r3, r2
 8001958:	644b      	str	r3, [r1, #68]	; 0x44
}
 800195a:	bf00      	nop
 800195c:	370c      	adds	r7, #12
 800195e:	46bd      	mov	sp, r7
 8001960:	f85d 7b04 	ldr.w	r7, [sp], #4
 8001964:	4770      	bx	lr
 8001966:	bf00      	nop
 8001968:	44020c00 	.word	0x44020c00

0800196c <LL_RCC_PLL3_SetP>:
  * @note Used for peripherals clocks
  * @rmtoll PLL3CFGR      PLL3P       LL_RCC_PLL3_SetP
  * @param PLL3P parameter can be a value between 1 and 128
  */
__STATIC_INLINE void LL_RCC_PLL3_SetP(uint32_t PLL3P)
{
 800196c:	b480      	push	{r7}
 800196e:	b083      	sub	sp, #12
 8001970:	af00      	add	r7, sp, #0
 8001972:	6078      	str	r0, [r7, #4]
  MODIFY_REG(RCC->PLL3DIVR, RCC_PLL3DIVR_PLL3P, (PLL3P - 1UL) << RCC_PLL3DIVR_PLL3P_Pos);
 8001974:	4b07      	ldr	r3, [pc, #28]	; (8001994 <LL_RCC_PLL3_SetP+0x28>)
 8001976:	6c5b      	ldr	r3, [r3, #68]	; 0x44
 8001978:	f423 427e 	bic.w	r2, r3, #65024	; 0xfe00
 800197c:	687b      	ldr	r3, [r7, #4]
 800197e:	3b01      	subs	r3, #1
 8001980:	025b      	lsls	r3, r3, #9
 8001982:	4904      	ldr	r1, [pc, #16]	; (8001994 <LL_RCC_PLL3_SetP+0x28>)
 8001984:	4313      	orrs	r3, r2
 8001986:	644b      	str	r3, [r1, #68]	; 0x44
}
 8001988:	bf00      	nop
 800198a:	370c      	adds	r7, #12
 800198c:	46bd      	mov	sp, r7
 800198e:	f85d 7b04 	ldr.w	r7, [sp], #4
 8001992:	4770      	bx	lr
 8001994:	44020c00 	.word	0x44020c00

08001998 <LL_RCC_PLL3_SetQ>:
  * @note Used for peripherals clocks
  * @rmtoll PLLCFGR      PLL3Q          LL_RCC_PLL3_SetQ
  * @param PLL3Q parameter can be a value between 1 and 128
  */
__STATIC_INLINE void LL_RCC_PLL3_SetQ(uint32_t PLL3Q)
{
 8001998:	b480      	push	{r7}
 800199a:	b083      	sub	sp, #12
 800199c:	af00      	add	r7, sp, #0
 800199e:	6078      	str	r0, [r7, #4]
  MODIFY_REG(RCC->PLL3DIVR, RCC_PLL3DIVR_PLL3Q, (PLL3Q - 1UL) << RCC_PLL3DIVR_PLL3Q_Pos);
 80019a0:	4b07      	ldr	r3, [pc, #28]	; (80019c0 <LL_RCC_PLL3_SetQ+0x28>)
 80019a2:	6c5b      	ldr	r3, [r3, #68]	; 0x44
 80019a4:	f423 02fe 	bic.w	r2, r3, #8323072	; 0x7f0000
 80019a8:	687b      	ldr	r3, [r7, #4]
 80019aa:	3b01      	subs	r3, #1
 80019ac:	041b      	lsls	r3, r3, #16
 80019ae:	4904      	ldr	r1, [pc, #16]	; (80019c0 <LL_RCC_PLL3_SetQ+0x28>)
 80019b0:	4313      	orrs	r3, r2
 80019b2:	644b      	str	r3, [r1, #68]	; 0x44
}
 80019b4:	bf00      	nop
 80019b6:	370c      	adds	r7, #12
 80019b8:	46bd      	mov	sp, r7
 80019ba:	f85d 7b04 	ldr.w	r7, [sp], #4
 80019be:	4770      	bx	lr
 80019c0:	44020c00 	.word	0x44020c00

080019c4 <LL_RCC_PLL3_SetR>:
  * @note Used for peripherals clocks
  * @rmtoll PLL3CFGR      PLL3Q          LL_RCC_PLL3_SetR
  * @param PLL3R parameter can be a value between 1 and 128
  */
__STATIC_INLINE void LL_RCC_PLL3_SetR(uint32_t PLL3R)
{
 80019c4:	b480      	push	{r7}
 80019c6:	b083      	sub	sp, #12
 80019c8:	af00      	add	r7, sp, #0
 80019ca:	6078      	str	r0, [r7, #4]
  MODIFY_REG(RCC->PLL3DIVR, RCC_PLL3DIVR_PLL3R, (PLL3R - 1UL) << RCC_PLL3DIVR_PLL3R_Pos);
 80019cc:	4b07      	ldr	r3, [pc, #28]	; (80019ec <LL_RCC_PLL3_SetR+0x28>)
 80019ce:	6c5b      	ldr	r3, [r3, #68]	; 0x44
 80019d0:	f023 42fe 	bic.w	r2, r3, #2130706432	; 0x7f000000
 80019d4:	687b      	ldr	r3, [r7, #4]
 80019d6:	3b01      	subs	r3, #1
 80019d8:	061b      	lsls	r3, r3, #24
 80019da:	4904      	ldr	r1, [pc, #16]	; (80019ec <LL_RCC_PLL3_SetR+0x28>)
 80019dc:	4313      	orrs	r3, r2
 80019de:	644b      	str	r3, [r1, #68]	; 0x44
}
 80019e0:	bf00      	nop
 80019e2:	370c      	adds	r7, #12
 80019e4:	46bd      	mov	sp, r7
 80019e6:	f85d 7b04 	ldr.w	r7, [sp], #4
 80019ea:	4770      	bx	lr
 80019ec:	44020c00 	.word	0x44020c00

080019f0 <LL_RCC_PLL3_SetM>:
  * @brief  Set PLL3 Division factor M
  * @rmtoll PLL3CFGR      PLL3M          LL_RCC_PLL3_SetM
  * @param PLL3M parameter can be a value between 1 and 63
  */
__STATIC_INLINE void LL_RCC_PLL3_SetM(uint32_t PLL3M)
{
 80019f0:	b480      	push	{r7}
 80019f2:	b083      	sub	sp, #12
 80019f4:	af00      	add	r7, sp, #0
 80019f6:	6078      	str	r0, [r7, #4]
  MODIFY_REG(RCC->PLL3CFGR, RCC_PLL3CFGR_PLL3M, PLL3M << RCC_PLL3CFGR_PLL3M_Pos);
 80019f8:	4b07      	ldr	r3, [pc, #28]	; (8001a18 <LL_RCC_PLL3_SetM+0x28>)
 80019fa:	6b1b      	ldr	r3, [r3, #48]	; 0x30
 80019fc:	f423 527c 	bic.w	r2, r3, #16128	; 0x3f00
 8001a00:	687b      	ldr	r3, [r7, #4]
 8001a02:	021b      	lsls	r3, r3, #8
 8001a04:	4904      	ldr	r1, [pc, #16]	; (8001a18 <LL_RCC_PLL3_SetM+0x28>)
 8001a06:	4313      	orrs	r3, r2
 8001a08:	630b      	str	r3, [r1, #48]	; 0x30
}
 8001a0a:	bf00      	nop
 8001a0c:	370c      	adds	r7, #12
 8001a0e:	46bd      	mov	sp, r7
 8001a10:	f85d 7b04 	ldr.w	r7, [sp], #4
 8001a14:	4770      	bx	lr
 8001a16:	bf00      	nop
 8001a18:	44020c00 	.word	0x44020c00

08001a1c <LL_RCC_PLL3P_Disable>:
  *       not used, it should be disabled (at any time)
  * @rmtoll PLL3CFGR  PLL3PEN    LL_RCC_PLL3P_Disable
  * @retval None
  */
__STATIC_INLINE void LL_RCC_PLL3P_Disable(void)
{
 8001a1c:	b480      	push	{r7}
 8001a1e:	af00      	add	r7, sp, #0
  CLEAR_BIT(RCC->PLL3CFGR, RCC_PLL3CFGR_PLL3PEN);
 8001a20:	4b05      	ldr	r3, [pc, #20]	; (8001a38 <LL_RCC_PLL3P_Disable+0x1c>)
 8001a22:	6b1b      	ldr	r3, [r3, #48]	; 0x30
 8001a24:	4a04      	ldr	r2, [pc, #16]	; (8001a38 <LL_RCC_PLL3P_Disable+0x1c>)
 8001a26:	f423 3380 	bic.w	r3, r3, #65536	; 0x10000
 8001a2a:	6313      	str	r3, [r2, #48]	; 0x30
}
 8001a2c:	bf00      	nop
 8001a2e:	46bd      	mov	sp, r7
 8001a30:	f85d 7b04 	ldr.w	r7, [sp], #4
 8001a34:	4770      	bx	lr
 8001a36:	bf00      	nop
 8001a38:	44020c00 	.word	0x44020c00

08001a3c <LL_RCC_PLL3Q_Disable>:
  *       not used, it should be disabled (at any time)
  * @rmtoll PLL3CFGR  PLL3QEN    LL_RCC_PLL3Q_Disable
  * @retval None
  */
__STATIC_INLINE void LL_RCC_PLL3Q_Disable(void)
{
 8001a3c:	b480      	push	{r7}
 8001a3e:	af00      	add	r7, sp, #0
  CLEAR_BIT(RCC->PLL3CFGR, RCC_PLL3CFGR_PLL3QEN);
 8001a40:	4b05      	ldr	r3, [pc, #20]	; (8001a58 <LL_RCC_PLL3Q_Disable+0x1c>)
 8001a42:	6b1b      	ldr	r3, [r3, #48]	; 0x30
 8001a44:	4a04      	ldr	r2, [pc, #16]	; (8001a58 <LL_RCC_PLL3Q_Disable+0x1c>)
 8001a46:	f423 3300 	bic.w	r3, r3, #131072	; 0x20000
 8001a4a:	6313      	str	r3, [r2, #48]	; 0x30
}
 8001a4c:	bf00      	nop
 8001a4e:	46bd      	mov	sp, r7
 8001a50:	f85d 7b04 	ldr.w	r7, [sp], #4
 8001a54:	4770      	bx	lr
 8001a56:	bf00      	nop
 8001a58:	44020c00 	.word	0x44020c00

08001a5c <LL_RCC_PLL3R_Enable>:
  * @brief  Enable PLL3 R output
  * @rmtoll PLL3CFGR  PLL3REN    LL_RCC_PLL3R_Enable
  * @retval None
  */
__STATIC_INLINE void LL_RCC_PLL3R_Enable(void)
{
 8001a5c:	b480      	push	{r7}
 8001a5e:	af00      	add	r7, sp, #0
  SET_BIT(RCC->PLL3CFGR, RCC_PLL3CFGR_PLL3REN);
 8001a60:	4b05      	ldr	r3, [pc, #20]	; (8001a78 <LL_RCC_PLL3R_Enable+0x1c>)
 8001a62:	6b1b      	ldr	r3, [r3, #48]	; 0x30
 8001a64:	4a04      	ldr	r2, [pc, #16]	; (8001a78 <LL_RCC_PLL3R_Enable+0x1c>)
 8001a66:	f443 2380 	orr.w	r3, r3, #262144	; 0x40000
 8001a6a:	6313      	str	r3, [r2, #48]	; 0x30
}
 8001a6c:	bf00      	nop
 8001a6e:	46bd      	mov	sp, r7
 8001a70:	f85d 7b04 	ldr.w	r7, [sp], #4
 8001a74:	4770      	bx	lr
 8001a76:	bf00      	nop
 8001a78:	44020c00 	.word	0x44020c00

08001a7c <LL_RCC_PLL3FRACN_Disable>:
  * @brief  Disable PLL3 FRACN
  * @rmtoll PLL3CFGR           PLL3FRACEN         LL_RCC_PLL3FRACN_Disable
  * @retval None
  */
__STATIC_INLINE void LL_RCC_PLL3FRACN_Disable(void)
{
 8001a7c:	b480      	push	{r7}
 8001a7e:	af00      	add	r7, sp, #0
  CLEAR_BIT(RCC->PLL3CFGR, RCC_PLL3CFGR_PLL3FRACEN);
 8001a80:	4b05      	ldr	r3, [pc, #20]	; (8001a98 <LL_RCC_PLL3FRACN_Disable+0x1c>)
 8001a82:	6b1b      	ldr	r3, [r3, #48]	; 0x30
 8001a84:	4a04      	ldr	r2, [pc, #16]	; (8001a98 <LL_RCC_PLL3FRACN_Disable+0x1c>)
 8001a86:	f023 0310 	bic.w	r3, r3, #16
 8001a8a:	6313      	str	r3, [r2, #48]	; 0x30
}
 8001a8c:	bf00      	nop
 8001a8e:	46bd      	mov	sp, r7
 8001a90:	f85d 7b04 	ldr.w	r7, [sp], #4
 8001a94:	4770      	bx	lr
 8001a96:	bf00      	nop
 8001a98:	44020c00 	.word	0x44020c00

08001a9c <LL_RCC_PLL3_SetVCOInputRange>:
  *         @arg @ref LL_RCC_PLLINPUTRANGE_4_8
  *         @arg @ref LL_RCC_PLLINPUTRANGE_8_16
  * @retval None
  */
__STATIC_INLINE void LL_RCC_PLL3_SetVCOInputRange(uint32_t InputRange)
{
 8001a9c:	b480      	push	{r7}
 8001a9e:	b083      	sub	sp, #12
 8001aa0:	af00      	add	r7, sp, #0
 8001aa2:	6078      	str	r0, [r7, #4]
  MODIFY_REG(RCC->PLL3CFGR, RCC_PLL3CFGR_PLL3RGE, InputRange << RCC_PLL3CFGR_PLL3RGE_Pos);
 8001aa4:	4b07      	ldr	r3, [pc, #28]	; (8001ac4 <LL_RCC_PLL3_SetVCOInputRange+0x28>)
 8001aa6:	6b1b      	ldr	r3, [r3, #48]	; 0x30
 8001aa8:	f023 020c 	bic.w	r2, r3, #12
 8001aac:	687b      	ldr	r3, [r7, #4]
 8001aae:	009b      	lsls	r3, r3, #2
 8001ab0:	4904      	ldr	r1, [pc, #16]	; (8001ac4 <LL_RCC_PLL3_SetVCOInputRange+0x28>)
 8001ab2:	4313      	orrs	r3, r2
 8001ab4:	630b      	str	r3, [r1, #48]	; 0x30
}
 8001ab6:	bf00      	nop
 8001ab8:	370c      	adds	r7, #12
 8001aba:	46bd      	mov	sp, r7
 8001abc:	f85d 7b04 	ldr.w	r7, [sp], #4
 8001ac0:	4770      	bx	lr
 8001ac2:	bf00      	nop
 8001ac4:	44020c00 	.word	0x44020c00

08001ac8 <LL_RCC_PLL3_SetVCOOutputRange>:
  *         @arg @ref LL_RCC_PLLVCORANGE_WIDE
  *         @arg @ref LL_RCC_PLLVCORANGE_MEDIUM
  * @retval None
  */
__STATIC_INLINE void LL_RCC_PLL3_SetVCOOutputRange(uint32_t VCORange)
{
 8001ac8:	b480      	push	{r7}
 8001aca:	b083      	sub	sp, #12
 8001acc:	af00      	add	r7, sp, #0
 8001ace:	6078      	str	r0, [r7, #4]
  MODIFY_REG(RCC->PLL3CFGR, RCC_PLL3CFGR_PLL3VCOSEL, VCORange << RCC_PLL3CFGR_PLL3VCOSEL_Pos);
 8001ad0:	4b07      	ldr	r3, [pc, #28]	; (8001af0 <LL_RCC_PLL3_SetVCOOutputRange+0x28>)
 8001ad2:	6b1b      	ldr	r3, [r3, #48]	; 0x30
 8001ad4:	f023 0220 	bic.w	r2, r3, #32
 8001ad8:	687b      	ldr	r3, [r7, #4]
 8001ada:	015b      	lsls	r3, r3, #5
 8001adc:	4904      	ldr	r1, [pc, #16]	; (8001af0 <LL_RCC_PLL3_SetVCOOutputRange+0x28>)
 8001ade:	4313      	orrs	r3, r2
 8001ae0:	630b      	str	r3, [r1, #48]	; 0x30
}
 8001ae2:	bf00      	nop
 8001ae4:	370c      	adds	r7, #12
 8001ae6:	46bd      	mov	sp, r7
 8001ae8:	f85d 7b04 	ldr.w	r7, [sp], #4
 8001aec:	4770      	bx	lr
 8001aee:	bf00      	nop
 8001af0:	44020c00 	.word	0x44020c00

08001af4 <LL_PWR_SetRegulVoltageScaling>:
  *         @arg @ref LL_PWR_REGU_VOLTAGE_SCALE2
  *         @arg @ref LL_PWR_REGU_VOLTAGE_SCALE3
  * @retval None
  */
__STATIC_INLINE void LL_PWR_SetRegulVoltageScaling(uint32_t VoltageScaling)
{
 8001af4:	b480      	push	{r7}
 8001af6:	b083      	sub	sp, #12
 8001af8:	af00      	add	r7, sp, #0
 8001afa:	6078      	str	r0, [r7, #4]
  MODIFY_REG(PWR->VOSCR, PWR_VOSCR_VOS, VoltageScaling);
 8001afc:	4b06      	ldr	r3, [pc, #24]	; (8001b18 <LL_PWR_SetRegulVoltageScaling+0x24>)
 8001afe:	691b      	ldr	r3, [r3, #16]
 8001b00:	f023 0230 	bic.w	r2, r3, #48	; 0x30
 8001b04:	4904      	ldr	r1, [pc, #16]	; (8001b18 <LL_PWR_SetRegulVoltageScaling+0x24>)
 8001b06:	687b      	ldr	r3, [r7, #4]
 8001b08:	4313      	orrs	r3, r2
 8001b0a:	610b      	str	r3, [r1, #16]
}
 8001b0c:	bf00      	nop
 8001b0e:	370c      	adds	r7, #12
 8001b10:	46bd      	mov	sp, r7
 8001b12:	f85d 7b04 	ldr.w	r7, [sp], #4
 8001b16:	4770      	bx	lr
 8001b18:	44020800 	.word	0x44020800

08001b1c <LL_PWR_IsActiveFlag_VOS>:
  *         scaling range or not.
  * @rmtoll VOSSR          VOSRDY          LL_PWR_IsActiveFlag_VOS
  * @retval State of bit (1 or 0).
  */
__STATIC_INLINE uint32_t LL_PWR_IsActiveFlag_VOS(void)
{
 8001b1c:	b480      	push	{r7}
 8001b1e:	af00      	add	r7, sp, #0
  return ((READ_BIT(PWR->VOSSR, PWR_VOSSR_VOSRDY) == (PWR_VOSSR_VOSRDY)) ? 1UL : 0UL);
 8001b20:	4b06      	ldr	r3, [pc, #24]	; (8001b3c <LL_PWR_IsActiveFlag_VOS+0x20>)
 8001b22:	695b      	ldr	r3, [r3, #20]
 8001b24:	f003 0308 	and.w	r3, r3, #8
 8001b28:	2b08      	cmp	r3, #8
 8001b2a:	d101      	bne.n	8001b30 <LL_PWR_IsActiveFlag_VOS+0x14>
 8001b2c:	2301      	movs	r3, #1
 8001b2e:	e000      	b.n	8001b32 <LL_PWR_IsActiveFlag_VOS+0x16>
 8001b30:	2300      	movs	r3, #0
}
 8001b32:	4618      	mov	r0, r3
 8001b34:	46bd      	mov	sp, r7
 8001b36:	f85d 7b04 	ldr.w	r7, [sp], #4
 8001b3a:	4770      	bx	lr
 8001b3c:	44020800 	.word	0x44020800

08001b40 <DDR5_Clock_SetVoltageScale>:
    }

    __asm volatile("" ::: "memory");
}
static void DDR5_Clock_SetVoltageScale(void)
{
 8001b40:	b580      	push	{r7, lr}
 8001b42:	af00      	add	r7, sp, #0
	/*
	 * Voltage scaling for 128 MHz operation.
	 * The active VOS level is verified later through PWR->VOSSR.ACTVOS.
	 */
    LL_PWR_SetRegulVoltageScaling(LL_PWR_REGU_VOLTAGE_SCALE2);
 8001b44:	2010      	movs	r0, #16
 8001b46:	f7ff ffd5 	bl	8001af4 <LL_PWR_SetRegulVoltageScaling>

    while (LL_PWR_IsActiveFlag_VOS() == 0U)
 8001b4a:	bf00      	nop
 8001b4c:	f7ff ffe6 	bl	8001b1c <LL_PWR_IsActiveFlag_VOS>
 8001b50:	4603      	mov	r3, r0
 8001b52:	2b00      	cmp	r3, #0
 8001b54:	d0fa      	beq.n	8001b4c <DDR5_Clock_SetVoltageScale+0xc>
    {
    }
}
 8001b56:	bf00      	nop
 8001b58:	bf00      	nop
 8001b5a:	bd80      	pop	{r7, pc}

08001b5c <DDR5_Clock_SetFlashLatency>:

static void DDR5_Clock_SetFlashLatency(void)
{
 8001b5c:	b580      	push	{r7, lr}
 8001b5e:	af00      	add	r7, sp, #0
    /*
     * Conservative for 128 MHz bring-up.
     * If your Cube/part requires a different latency, adjust here.
     */
    LL_FLASH_SetLatency(LL_FLASH_LATENCY_3);
 8001b60:	2003      	movs	r0, #3
 8001b62:	f7ff fc5b 	bl	800141c <LL_FLASH_SetLatency>

    while (LL_FLASH_GetLatency() != LL_FLASH_LATENCY_3)
 8001b66:	bf00      	nop
 8001b68:	f7ff fc6c 	bl	8001444 <LL_FLASH_GetLatency>
 8001b6c:	4603      	mov	r3, r0
 8001b6e:	2b03      	cmp	r3, #3
 8001b70:	d1fa      	bne.n	8001b68 <DDR5_Clock_SetFlashLatency+0xc>
    {
    }
}
 8001b72:	bf00      	nop
 8001b74:	bf00      	nop
 8001b76:	bd80      	pop	{r7, pc}

08001b78 <DDR5_Clock_InitSafeHSI>:

static void DDR5_Clock_InitSafeHSI(void)
{
 8001b78:	b580      	push	{r7, lr}
 8001b7a:	b082      	sub	sp, #8
 8001b7c:	af00      	add	r7, sp, #0
    /* Enable HSI */
    LL_RCC_HSI_Enable();
 8001b7e:	f7ff fc6f 	bl	8001460 <LL_RCC_HSI_Enable>
    while (LL_RCC_HSI_IsReady() != 1U)
 8001b82:	bf00      	nop
 8001b84:	f7ff fc7c 	bl	8001480 <LL_RCC_HSI_IsReady>
 8001b88:	4603      	mov	r3, r0
 8001b8a:	2b01      	cmp	r3, #1
 8001b8c:	d1fa      	bne.n	8001b84 <DDR5_Clock_InitSafeHSI+0xc>
    {
    }

    /* Force HSI divider to /1 */
        LL_RCC_HSI_SetDivider(LL_RCC_HSI_DIV_1);
 8001b8e:	2000      	movs	r0, #0
 8001b90:	f7ff fc88 	bl	80014a4 <LL_RCC_HSI_SetDivider>

	/* Opcional: espera de confirmación si tu versión LL lo soporta */
	while (LL_RCC_HSI_GetDivider() != LL_RCC_HSI_DIV_1)
 8001b94:	bf00      	nop
 8001b96:	f7ff fc99 	bl	80014cc <LL_RCC_HSI_GetDivider>
 8001b9a:	4603      	mov	r3, r0
 8001b9c:	2b00      	cmp	r3, #0
 8001b9e:	d1fa      	bne.n	8001b96 <DDR5_Clock_InitSafeHSI+0x1e>
	{
	}

    /* Use HSI as SYSCLK */
    LL_RCC_SetSysClkSource(LL_RCC_SYS_CLKSOURCE_HSI);
 8001ba0:	2000      	movs	r0, #0
 8001ba2:	f7ff fca1 	bl	80014e8 <LL_RCC_SetSysClkSource>
    while (LL_RCC_GetSysClkSource() != LL_RCC_SYS_CLKSOURCE_STATUS_HSI)
 8001ba6:	bf00      	nop
 8001ba8:	f7ff fcb2 	bl	8001510 <LL_RCC_GetSysClkSource>
 8001bac:	4603      	mov	r3, r0
 8001bae:	2b00      	cmp	r3, #0
 8001bb0:	d1fa      	bne.n	8001ba8 <DDR5_Clock_InitSafeHSI+0x30>
    {
    }

    /* Safe prescalers */
    LL_RCC_SetAHBPrescaler(LL_RCC_SYSCLK_DIV_1);
 8001bb2:	2000      	movs	r0, #0
 8001bb4:	f7ff fcba 	bl	800152c <LL_RCC_SetAHBPrescaler>
    LL_RCC_SetAPB1Prescaler(LL_RCC_APB1_DIV_1);
 8001bb8:	2000      	movs	r0, #0
 8001bba:	f7ff fccb 	bl	8001554 <LL_RCC_SetAPB1Prescaler>
    LL_RCC_SetAPB2Prescaler(LL_RCC_APB2_DIV_1);
 8001bbe:	2000      	movs	r0, #0
 8001bc0:	f7ff fcdc 	bl	800157c <LL_RCC_SetAPB2Prescaler>
    LL_RCC_SetAPB3Prescaler(LL_RCC_APB3_DIV_1);
 8001bc4:	2000      	movs	r0, #0
 8001bc6:	f7ff fced 	bl	80015a4 <LL_RCC_SetAPB3Prescaler>

    uint32_t SystemCoreClock = DDR5_HSI_FREQ_HZ;
 8001bca:	4b07      	ldr	r3, [pc, #28]	; (8001be8 <DDR5_Clock_InitSafeHSI+0x70>)
 8001bcc:	607b      	str	r3, [r7, #4]
    SysTick_Config(SystemCoreClock / 1000U);
 8001bce:	687b      	ldr	r3, [r7, #4]
 8001bd0:	4a06      	ldr	r2, [pc, #24]	; (8001bec <DDR5_Clock_InitSafeHSI+0x74>)
 8001bd2:	fba2 2303 	umull	r2, r3, r2, r3
 8001bd6:	099b      	lsrs	r3, r3, #6
 8001bd8:	4618      	mov	r0, r3
 8001bda:	f7ff fbfd 	bl	80013d8 <SysTick_Config>

}
 8001bde:	bf00      	nop
 8001be0:	3708      	adds	r7, #8
 8001be2:	46bd      	mov	sp, r7
 8001be4:	bd80      	pop	{r7, pc}
 8001be6:	bf00      	nop
 8001be8:	03d09000 	.word	0x03d09000
 8001bec:	10624dd3 	.word	0x10624dd3

08001bf0 <DDR5_PLL1_Config>:

static void DDR5_PLL1_Config(void)
{
 8001bf0:	b580      	push	{r7, lr}
 8001bf2:	af00      	add	r7, sp, #0
    if (LL_RCC_PLL1_IsReady() != 0U)
 8001bf4:	f7ff fd56 	bl	80016a4 <LL_RCC_PLL1_IsReady>
 8001bf8:	4603      	mov	r3, r0
 8001bfa:	2b00      	cmp	r3, #0
 8001bfc:	d007      	beq.n	8001c0e <DDR5_PLL1_Config+0x1e>
    {
        LL_RCC_PLL1_Disable();
 8001bfe:	f7ff fd41 	bl	8001684 <LL_RCC_PLL1_Disable>
        while (LL_RCC_PLL1_IsReady() != 0U)
 8001c02:	bf00      	nop
 8001c04:	f7ff fd4e 	bl	80016a4 <LL_RCC_PLL1_IsReady>
 8001c08:	4603      	mov	r3, r0
 8001c0a:	2b00      	cmp	r3, #0
 8001c0c:	d1fa      	bne.n	8001c04 <DDR5_PLL1_Config+0x14>
        {
        }
    }

    LL_RCC_PLL1_SetSource(LL_RCC_PLL1SOURCE_HSI);
 8001c0e:	2001      	movs	r0, #1
 8001c10:	f7ff fd8c 	bl	800172c <LL_RCC_PLL1_SetSource>

    LL_RCC_PLL1_SetM(DDR5_PLL1_M);
 8001c14:	2004      	movs	r0, #4
 8001c16:	f7ff fdf7 	bl	8001808 <LL_RCC_PLL1_SetM>
    LL_RCC_PLL1_SetN(DDR5_PLL1_N);
 8001c1a:	2010      	movs	r0, #16
 8001c1c:	f7ff fd9a 	bl	8001754 <LL_RCC_PLL1_SetN>
    LL_RCC_PLL1_SetP(DDR5_PLL1_P);
 8001c20:	2002      	movs	r0, #2
 8001c22:	f7ff fdaf 	bl	8001784 <LL_RCC_PLL1_SetP>
    LL_RCC_PLL1_SetQ(DDR5_PLL1_Q);
 8001c26:	2002      	movs	r0, #2
 8001c28:	f7ff fdc2 	bl	80017b0 <LL_RCC_PLL1_SetQ>
    LL_RCC_PLL1_SetR(DDR5_PLL1_R);
 8001c2c:	2002      	movs	r0, #2
 8001c2e:	f7ff fdd5 	bl	80017dc <LL_RCC_PLL1_SetR>

    LL_RCC_PLL1_SetVCOInputRange(LL_RCC_PLLINPUTRANGE_8_16);
 8001c32:	2003      	movs	r0, #3
 8001c34:	f7ff fe0e 	bl	8001854 <LL_RCC_PLL1_SetVCOInputRange>
    LL_RCC_PLL1_SetVCOOutputRange(LL_RCC_PLLVCORANGE_WIDE);
 8001c38:	2000      	movs	r0, #0
 8001c3a:	f7ff fe21 	bl	8001880 <LL_RCC_PLL1_SetVCOOutputRange>

    LL_RCC_PLL1FRACN_Disable();
 8001c3e:	f7ff fdf9 	bl	8001834 <LL_RCC_PLL1FRACN_Disable>

    LL_RCC_PLL1P_Enable();
 8001c42:	f7ff fd43 	bl	80016cc <LL_RCC_PLL1P_Enable>
    LL_RCC_PLL1Q_Enable();
 8001c46:	f7ff fd51 	bl	80016ec <LL_RCC_PLL1Q_Enable>
    LL_RCC_PLL1R_Enable();
 8001c4a:	f7ff fd5f 	bl	800170c <LL_RCC_PLL1R_Enable>

    LL_RCC_PLL1_Enable();
 8001c4e:	f7ff fd09 	bl	8001664 <LL_RCC_PLL1_Enable>
    while (LL_RCC_PLL1_IsReady() != 1U)
 8001c52:	bf00      	nop
 8001c54:	f7ff fd26 	bl	80016a4 <LL_RCC_PLL1_IsReady>
 8001c58:	4603      	mov	r3, r0
 8001c5a:	2b01      	cmp	r3, #1
 8001c5c:	d1fa      	bne.n	8001c54 <DDR5_PLL1_Config+0x64>
    {
    }
}
 8001c5e:	bf00      	nop
 8001c60:	bf00      	nop
 8001c62:	bd80      	pop	{r7, pc}

08001c64 <DDR5_PLL3_Config>:

static void DDR5_PLL3_Config(void)
{
 8001c64:	b580      	push	{r7, lr}
 8001c66:	af00      	add	r7, sp, #0
    if (LL_RCC_PLL3_IsReady() != 0U)
 8001c68:	f7ff fe40 	bl	80018ec <LL_RCC_PLL3_IsReady>
 8001c6c:	4603      	mov	r3, r0
 8001c6e:	2b00      	cmp	r3, #0
 8001c70:	d007      	beq.n	8001c82 <DDR5_PLL3_Config+0x1e>
    {
        LL_RCC_PLL3_Disable();
 8001c72:	f7ff fe2b 	bl	80018cc <LL_RCC_PLL3_Disable>
        while (LL_RCC_PLL3_IsReady() != 0U)
 8001c76:	bf00      	nop
 8001c78:	f7ff fe38 	bl	80018ec <LL_RCC_PLL3_IsReady>
 8001c7c:	4603      	mov	r3, r0
 8001c7e:	2b00      	cmp	r3, #0
 8001c80:	d1fa      	bne.n	8001c78 <DDR5_PLL3_Config+0x14>
        {
        }
    }

    LL_RCC_PLL3_SetSource(LL_RCC_PLL3SOURCE_HSI);
 8001c82:	2001      	movs	r0, #1
 8001c84:	f7ff fe46 	bl	8001914 <LL_RCC_PLL3_SetSource>

    LL_RCC_PLL3_SetM(DDR5_PLL3_M);
 8001c88:	2004      	movs	r0, #4
 8001c8a:	f7ff feb1 	bl	80019f0 <LL_RCC_PLL3_SetM>
    LL_RCC_PLL3_SetN(DDR5_PLL3_N);
 8001c8e:	200a      	movs	r0, #10
 8001c90:	f7ff fe54 	bl	800193c <LL_RCC_PLL3_SetN>
    LL_RCC_PLL3_SetP(DDR5_PLL3_P);
 8001c94:	2002      	movs	r0, #2
 8001c96:	f7ff fe69 	bl	800196c <LL_RCC_PLL3_SetP>
    LL_RCC_PLL3_SetQ(DDR5_PLL3_Q);
 8001c9a:	2002      	movs	r0, #2
 8001c9c:	f7ff fe7c 	bl	8001998 <LL_RCC_PLL3_SetQ>
    LL_RCC_PLL3_SetR(DDR5_PLL3_R);
 8001ca0:	2002      	movs	r0, #2
 8001ca2:	f7ff fe8f 	bl	80019c4 <LL_RCC_PLL3_SetR>

    LL_RCC_PLL3_SetVCOInputRange(LL_RCC_PLLINPUTRANGE_8_16);
 8001ca6:	2003      	movs	r0, #3
 8001ca8:	f7ff fef8 	bl	8001a9c <LL_RCC_PLL3_SetVCOInputRange>
    LL_RCC_PLL3_SetVCOOutputRange(LL_RCC_PLLVCORANGE_WIDE);
 8001cac:	2000      	movs	r0, #0
 8001cae:	f7ff ff0b 	bl	8001ac8 <LL_RCC_PLL3_SetVCOOutputRange>

    LL_RCC_PLL3FRACN_Disable();
 8001cb2:	f7ff fee3 	bl	8001a7c <LL_RCC_PLL3FRACN_Disable>

    LL_RCC_PLL3P_Disable();
 8001cb6:	f7ff feb1 	bl	8001a1c <LL_RCC_PLL3P_Disable>
    LL_RCC_PLL3Q_Disable();
 8001cba:	f7ff febf 	bl	8001a3c <LL_RCC_PLL3Q_Disable>
    LL_RCC_PLL3R_Enable();
 8001cbe:	f7ff fecd 	bl	8001a5c <LL_RCC_PLL3R_Enable>

    LL_RCC_PLL3_Enable();
 8001cc2:	f7ff fdf3 	bl	80018ac <LL_RCC_PLL3_Enable>
    while (LL_RCC_PLL3_IsReady() != 1U)
 8001cc6:	bf00      	nop
 8001cc8:	f7ff fe10 	bl	80018ec <LL_RCC_PLL3_IsReady>
 8001ccc:	4603      	mov	r3, r0
 8001cce:	2b01      	cmp	r3, #1
 8001cd0:	d1fa      	bne.n	8001cc8 <DDR5_PLL3_Config+0x64>
    {
    }
}
 8001cd2:	bf00      	nop
 8001cd4:	bf00      	nop
 8001cd6:	bd80      	pop	{r7, pc}

08001cd8 <DDR5_Clock_Init>:



void DDR5_Clock_Init(void)
{
 8001cd8:	b580      	push	{r7, lr}
 8001cda:	af00      	add	r7, sp, #0
    DDR5_Clock_InitSafeHSI();
 8001cdc:	f7ff ff4c 	bl	8001b78 <DDR5_Clock_InitSafeHSI>

    DDR5_Clock_SetVoltageScale();
 8001ce0:	f7ff ff2e 	bl	8001b40 <DDR5_Clock_SetVoltageScale>
    DDR5_Clock_SetFlashLatency();
 8001ce4:	f7ff ff3a 	bl	8001b5c <DDR5_Clock_SetFlashLatency>

    DDR5_PLL1_Config();
 8001ce8:	f7ff ff82 	bl	8001bf0 <DDR5_PLL1_Config>
    DDR5_PLL3_Config();
 8001cec:	f7ff ffba 	bl	8001c64 <DDR5_PLL3_Config>

    /* Main bus prescalers */
    LL_RCC_SetAHBPrescaler(LL_RCC_SYSCLK_DIV_1);
 8001cf0:	2000      	movs	r0, #0
 8001cf2:	f7ff fc1b 	bl	800152c <LL_RCC_SetAHBPrescaler>
    LL_RCC_SetAPB1Prescaler(LL_RCC_APB1_DIV_1);
 8001cf6:	2000      	movs	r0, #0
 8001cf8:	f7ff fc2c 	bl	8001554 <LL_RCC_SetAPB1Prescaler>
    LL_RCC_SetAPB2Prescaler(LL_RCC_APB2_DIV_1);
 8001cfc:	2000      	movs	r0, #0
 8001cfe:	f7ff fc3d 	bl	800157c <LL_RCC_SetAPB2Prescaler>
    LL_RCC_SetAPB3Prescaler(LL_RCC_APB3_DIV_1);
 8001d02:	2000      	movs	r0, #0
 8001d04:	f7ff fc4e 	bl	80015a4 <LL_RCC_SetAPB3Prescaler>

    /* Peripheral kernel clocks
     */
    LL_RCC_SetI3CClockSource(LL_RCC_I3C1_CLKSOURCE_PLL3R);
 8001d08:	480d      	ldr	r0, [pc, #52]	; (8001d40 <DDR5_Clock_Init+0x68>)
 8001d0a:	f7ff fc9f 	bl	800164c <LL_RCC_SetI3CClockSource>
    LL_RCC_SetI2CClockSource(LL_RCC_I2C1_CLKSOURCE_HSI);
 8001d0e:	480d      	ldr	r0, [pc, #52]	; (8001d44 <DDR5_Clock_Init+0x6c>)
 8001d10:	f7ff fc91 	bl	8001636 <LL_RCC_SetI2CClockSource>
    LL_RCC_SetUSARTClockSource(LL_RCC_USART3_CLKSOURCE_HSI);
 8001d14:	480c      	ldr	r0, [pc, #48]	; (8001d48 <DDR5_Clock_Init+0x70>)
 8001d16:	f7ff fc83 	bl	8001620 <LL_RCC_SetUSARTClockSource>

    /* SYSCLK <- PLL1 */
    LL_RCC_SetSysClkSource(LL_RCC_SYS_CLKSOURCE_PLL1);
 8001d1a:	2003      	movs	r0, #3
 8001d1c:	f7ff fbe4 	bl	80014e8 <LL_RCC_SetSysClkSource>
    while (LL_RCC_GetSysClkSource() != LL_RCC_SYS_CLKSOURCE_STATUS_PLL1)
 8001d20:	bf00      	nop
 8001d22:	f7ff fbf5 	bl	8001510 <LL_RCC_GetSysClkSource>
 8001d26:	4603      	mov	r3, r0
 8001d28:	2b18      	cmp	r3, #24
 8001d2a:	d1fa      	bne.n	8001d22 <DDR5_Clock_Init+0x4a>
    {
    }

    SystemCoreClock = DDR5_SYSCLK_FREQ_HZ;
 8001d2c:	4b07      	ldr	r3, [pc, #28]	; (8001d4c <DDR5_Clock_Init+0x74>)
 8001d2e:	4a08      	ldr	r2, [pc, #32]	; (8001d50 <DDR5_Clock_Init+0x78>)
 8001d30:	601a      	str	r2, [r3, #0]
    SysTick_Config(DDR5_SYSCLK_FREQ_HZ / 1000U);
 8001d32:	f44f 30fa 	mov.w	r0, #128000	; 0x1f400
 8001d36:	f7ff fb4f 	bl	80013d8 <SysTick_Config>

}
 8001d3a:	bf00      	nop
 8001d3c:	bd80      	pop	{r7, pc}
 8001d3e:	bf00      	nop
 8001d40:	0301180c 	.word	0x0301180c
 8001d44:	0302100c 	.word	0x0302100c
 8001d48:	07030600 	.word	0x07030600
 8001d4c:	20000000 	.word	0x20000000
 8001d50:	07a12000 	.word	0x07a12000

08001d54 <LL_EXTI_IsActiveFallingFlag_0_31>:
  *         @arg @ref LL_EXTI_LINE_16
  * @note   Please check each device line mapping for EXTI Line availability
  * @retval State of bit (1 or 0).
  */
__STATIC_INLINE uint32_t LL_EXTI_IsActiveFallingFlag_0_31(uint32_t ExtiLine)
{
 8001d54:	b480      	push	{r7}
 8001d56:	b083      	sub	sp, #12
 8001d58:	af00      	add	r7, sp, #0
 8001d5a:	6078      	str	r0, [r7, #4]
  return ((READ_BIT(EXTI->FPR1, ExtiLine) == (ExtiLine)) ? 1UL : 0UL);
 8001d5c:	4b07      	ldr	r3, [pc, #28]	; (8001d7c <LL_EXTI_IsActiveFallingFlag_0_31+0x28>)
 8001d5e:	691a      	ldr	r2, [r3, #16]
 8001d60:	687b      	ldr	r3, [r7, #4]
 8001d62:	4013      	ands	r3, r2
 8001d64:	687a      	ldr	r2, [r7, #4]
 8001d66:	429a      	cmp	r2, r3
 8001d68:	d101      	bne.n	8001d6e <LL_EXTI_IsActiveFallingFlag_0_31+0x1a>
 8001d6a:	2301      	movs	r3, #1
 8001d6c:	e000      	b.n	8001d70 <LL_EXTI_IsActiveFallingFlag_0_31+0x1c>
 8001d6e:	2300      	movs	r3, #0
}
 8001d70:	4618      	mov	r0, r3
 8001d72:	370c      	adds	r7, #12
 8001d74:	46bd      	mov	sp, r7
 8001d76:	f85d 7b04 	ldr.w	r7, [sp], #4
 8001d7a:	4770      	bx	lr
 8001d7c:	44022000 	.word	0x44022000

08001d80 <LL_EXTI_ClearFallingFlag_0_31>:
  *         @arg @ref LL_EXTI_LINE_16
  * @note   Please check each device line mapping for EXTI Line availability
  * @retval None
  */
__STATIC_INLINE void LL_EXTI_ClearFallingFlag_0_31(uint32_t ExtiLine)
{
 8001d80:	b480      	push	{r7}
 8001d82:	b083      	sub	sp, #12
 8001d84:	af00      	add	r7, sp, #0
 8001d86:	6078      	str	r0, [r7, #4]
  WRITE_REG(EXTI->FPR1, ExtiLine);
 8001d88:	4a04      	ldr	r2, [pc, #16]	; (8001d9c <LL_EXTI_ClearFallingFlag_0_31+0x1c>)
 8001d8a:	687b      	ldr	r3, [r7, #4]
 8001d8c:	6113      	str	r3, [r2, #16]
}
 8001d8e:	bf00      	nop
 8001d90:	370c      	adds	r7, #12
 8001d92:	46bd      	mov	sp, r7
 8001d94:	f85d 7b04 	ldr.w	r7, [sp], #4
 8001d98:	4770      	bx	lr
 8001d9a:	bf00      	nop
 8001d9c:	44022000 	.word	0x44022000

08001da0 <LL_EXTI_IsActiveRisingFlag_0_31>:
  *         @arg @ref LL_EXTI_LINE_16
  * @note   Please check each device line mapping for EXTI Line availability
  * @retval State of bit (1 or 0).
  */
__STATIC_INLINE uint32_t LL_EXTI_IsActiveRisingFlag_0_31(uint32_t ExtiLine)
{
 8001da0:	b480      	push	{r7}
 8001da2:	b083      	sub	sp, #12
 8001da4:	af00      	add	r7, sp, #0
 8001da6:	6078      	str	r0, [r7, #4]
  return ((READ_BIT(EXTI->RPR1, ExtiLine) == (ExtiLine)) ? 1UL : 0UL);
 8001da8:	4b07      	ldr	r3, [pc, #28]	; (8001dc8 <LL_EXTI_IsActiveRisingFlag_0_31+0x28>)
 8001daa:	68da      	ldr	r2, [r3, #12]
 8001dac:	687b      	ldr	r3, [r7, #4]
 8001dae:	4013      	ands	r3, r2
 8001db0:	687a      	ldr	r2, [r7, #4]
 8001db2:	429a      	cmp	r2, r3
 8001db4:	d101      	bne.n	8001dba <LL_EXTI_IsActiveRisingFlag_0_31+0x1a>
 8001db6:	2301      	movs	r3, #1
 8001db8:	e000      	b.n	8001dbc <LL_EXTI_IsActiveRisingFlag_0_31+0x1c>
 8001dba:	2300      	movs	r3, #0
}
 8001dbc:	4618      	mov	r0, r3
 8001dbe:	370c      	adds	r7, #12
 8001dc0:	46bd      	mov	sp, r7
 8001dc2:	f85d 7b04 	ldr.w	r7, [sp], #4
 8001dc6:	4770      	bx	lr
 8001dc8:	44022000 	.word	0x44022000

08001dcc <LL_EXTI_ClearRisingFlag_0_31>:
  *         @arg @ref LL_EXTI_LINE_16
  * @note   Please check each device line mapping for EXTI Line availability
  * @retval None
  */
__STATIC_INLINE void LL_EXTI_ClearRisingFlag_0_31(uint32_t ExtiLine)
{
 8001dcc:	b480      	push	{r7}
 8001dce:	b083      	sub	sp, #12
 8001dd0:	af00      	add	r7, sp, #0
 8001dd2:	6078      	str	r0, [r7, #4]
  WRITE_REG(EXTI->RPR1, ExtiLine);
 8001dd4:	4a04      	ldr	r2, [pc, #16]	; (8001de8 <LL_EXTI_ClearRisingFlag_0_31+0x1c>)
 8001dd6:	687b      	ldr	r3, [r7, #4]
 8001dd8:	60d3      	str	r3, [r2, #12]
}
 8001dda:	bf00      	nop
 8001ddc:	370c      	adds	r7, #12
 8001dde:	46bd      	mov	sp, r7
 8001de0:	f85d 7b04 	ldr.w	r7, [sp], #4
 8001de4:	4770      	bx	lr
 8001de6:	bf00      	nop
 8001de8:	44022000 	.word	0x44022000

08001dec <DDR5_OnButtonIRQ>:
/*
 * Weak callbacks
 * Override them in your application if needed.
 */
__WEAK void DDR5_OnButtonIRQ(uint32_t pin)
{
 8001dec:	b480      	push	{r7}
 8001dee:	b083      	sub	sp, #12
 8001df0:	af00      	add	r7, sp, #0
 8001df2:	6078      	str	r0, [r7, #4]
    (void)pin;
}
 8001df4:	bf00      	nop
 8001df6:	370c      	adds	r7, #12
 8001df8:	46bd      	mov	sp, r7
 8001dfa:	f85d 7b04 	ldr.w	r7, [sp], #4
 8001dfe:	4770      	bx	lr

08001e00 <DDR5_OnTriggerInIRQ>:

__WEAK void DDR5_OnTriggerInIRQ(void)
{
 8001e00:	b480      	push	{r7}
 8001e02:	af00      	add	r7, sp, #0
}
 8001e04:	bf00      	nop
 8001e06:	46bd      	mov	sp, r7
 8001e08:	f85d 7b04 	ldr.w	r7, [sp], #4
 8001e0c:	4770      	bx	lr

08001e0e <EXTI0_IRQHandler>:
/* --------------------------------------------------------------------------
 * IRQ handlers
 * -------------------------------------------------------------------------- */

void EXTI0_IRQHandler(void)
{
 8001e0e:	b580      	push	{r7, lr}
 8001e10:	af00      	add	r7, sp, #0
    if (LL_EXTI_IsActiveFallingFlag_0_31(LL_EXTI_LINE_0) != 0U)
 8001e12:	2001      	movs	r0, #1
 8001e14:	f7ff ff9e 	bl	8001d54 <LL_EXTI_IsActiveFallingFlag_0_31>
 8001e18:	4603      	mov	r3, r0
 8001e1a:	2b00      	cmp	r3, #0
 8001e1c:	d005      	beq.n	8001e2a <EXTI0_IRQHandler+0x1c>
    {
        LL_EXTI_ClearFallingFlag_0_31(LL_EXTI_LINE_0);
 8001e1e:	2001      	movs	r0, #1
 8001e20:	f7ff ffae 	bl	8001d80 <LL_EXTI_ClearFallingFlag_0_31>
        DDR5_OnButtonIRQ(BTN_UP_PIN);
 8001e24:	2001      	movs	r0, #1
 8001e26:	f7ff ffe1 	bl	8001dec <DDR5_OnButtonIRQ>
    }
}
 8001e2a:	bf00      	nop
 8001e2c:	bd80      	pop	{r7, pc}

08001e2e <EXTI1_IRQHandler>:

void EXTI1_IRQHandler(void)
{
 8001e2e:	b580      	push	{r7, lr}
 8001e30:	af00      	add	r7, sp, #0
    if (LL_EXTI_IsActiveRisingFlag_0_31(LL_EXTI_LINE_1) != 0U)
 8001e32:	2002      	movs	r0, #2
 8001e34:	f7ff ffb4 	bl	8001da0 <LL_EXTI_IsActiveRisingFlag_0_31>
 8001e38:	4603      	mov	r3, r0
 8001e3a:	2b00      	cmp	r3, #0
 8001e3c:	d004      	beq.n	8001e48 <EXTI1_IRQHandler+0x1a>
    {
        LL_EXTI_ClearRisingFlag_0_31(LL_EXTI_LINE_1);
 8001e3e:	2002      	movs	r0, #2
 8001e40:	f7ff ffc4 	bl	8001dcc <LL_EXTI_ClearRisingFlag_0_31>
        DDR5_OnTriggerInIRQ();
 8001e44:	f7ff ffdc 	bl	8001e00 <DDR5_OnTriggerInIRQ>
    }
}
 8001e48:	bf00      	nop
 8001e4a:	bd80      	pop	{r7, pc}

08001e4c <EXTI2_IRQHandler>:

void EXTI2_IRQHandler(void)
{
 8001e4c:	b580      	push	{r7, lr}
 8001e4e:	af00      	add	r7, sp, #0
    if (LL_EXTI_IsActiveFallingFlag_0_31(LL_EXTI_LINE_2) != 0U)
 8001e50:	2004      	movs	r0, #4
 8001e52:	f7ff ff7f 	bl	8001d54 <LL_EXTI_IsActiveFallingFlag_0_31>
 8001e56:	4603      	mov	r3, r0
 8001e58:	2b00      	cmp	r3, #0
 8001e5a:	d005      	beq.n	8001e68 <EXTI2_IRQHandler+0x1c>
    {
        LL_EXTI_ClearFallingFlag_0_31(LL_EXTI_LINE_2);
 8001e5c:	2004      	movs	r0, #4
 8001e5e:	f7ff ff8f 	bl	8001d80 <LL_EXTI_ClearFallingFlag_0_31>
        DDR5_OnButtonIRQ(BTN_DOWN_PIN);
 8001e62:	2004      	movs	r0, #4
 8001e64:	f7ff ffc2 	bl	8001dec <DDR5_OnButtonIRQ>
    }
}
 8001e68:	bf00      	nop
 8001e6a:	bd80      	pop	{r7, pc}

08001e6c <EXTI3_IRQHandler>:

void EXTI3_IRQHandler(void)
{
 8001e6c:	b580      	push	{r7, lr}
 8001e6e:	af00      	add	r7, sp, #0
    if (LL_EXTI_IsActiveFallingFlag_0_31(LL_EXTI_LINE_3) != 0U)
 8001e70:	2008      	movs	r0, #8
 8001e72:	f7ff ff6f 	bl	8001d54 <LL_EXTI_IsActiveFallingFlag_0_31>
 8001e76:	4603      	mov	r3, r0
 8001e78:	2b00      	cmp	r3, #0
 8001e7a:	d005      	beq.n	8001e88 <EXTI3_IRQHandler+0x1c>
    {
        LL_EXTI_ClearFallingFlag_0_31(LL_EXTI_LINE_3);
 8001e7c:	2008      	movs	r0, #8
 8001e7e:	f7ff ff7f 	bl	8001d80 <LL_EXTI_ClearFallingFlag_0_31>
        DDR5_OnButtonIRQ(BTN_LEFT_PIN);
 8001e82:	2008      	movs	r0, #8
 8001e84:	f7ff ffb2 	bl	8001dec <DDR5_OnButtonIRQ>
    }
}
 8001e88:	bf00      	nop
 8001e8a:	bd80      	pop	{r7, pc}

08001e8c <EXTI4_IRQHandler>:

void EXTI4_IRQHandler(void)
{
 8001e8c:	b580      	push	{r7, lr}
 8001e8e:	af00      	add	r7, sp, #0
    if (LL_EXTI_IsActiveFallingFlag_0_31(LL_EXTI_LINE_4) != 0U)
 8001e90:	2010      	movs	r0, #16
 8001e92:	f7ff ff5f 	bl	8001d54 <LL_EXTI_IsActiveFallingFlag_0_31>
 8001e96:	4603      	mov	r3, r0
 8001e98:	2b00      	cmp	r3, #0
 8001e9a:	d005      	beq.n	8001ea8 <EXTI4_IRQHandler+0x1c>
    {
        LL_EXTI_ClearFallingFlag_0_31(LL_EXTI_LINE_4);
 8001e9c:	2010      	movs	r0, #16
 8001e9e:	f7ff ff6f 	bl	8001d80 <LL_EXTI_ClearFallingFlag_0_31>
        DDR5_OnButtonIRQ(BTN_RIGHT_PIN);
 8001ea2:	2010      	movs	r0, #16
 8001ea4:	f7ff ffa2 	bl	8001dec <DDR5_OnButtonIRQ>
    }
}
 8001ea8:	bf00      	nop
 8001eaa:	bd80      	pop	{r7, pc}

08001eac <EXTI5_IRQHandler>:

void EXTI5_IRQHandler(void)
{
 8001eac:	b580      	push	{r7, lr}
 8001eae:	af00      	add	r7, sp, #0
    if (LL_EXTI_IsActiveFallingFlag_0_31(LL_EXTI_LINE_5) != 0U)
 8001eb0:	2020      	movs	r0, #32
 8001eb2:	f7ff ff4f 	bl	8001d54 <LL_EXTI_IsActiveFallingFlag_0_31>
 8001eb6:	4603      	mov	r3, r0
 8001eb8:	2b00      	cmp	r3, #0
 8001eba:	d005      	beq.n	8001ec8 <EXTI5_IRQHandler+0x1c>
    {
        LL_EXTI_ClearFallingFlag_0_31(LL_EXTI_LINE_5);
 8001ebc:	2020      	movs	r0, #32
 8001ebe:	f7ff ff5f 	bl	8001d80 <LL_EXTI_ClearFallingFlag_0_31>
        DDR5_OnButtonIRQ(BTN_OK_PIN);
 8001ec2:	2020      	movs	r0, #32
 8001ec4:	f7ff ff92 	bl	8001dec <DDR5_OnButtonIRQ>
    }
}
 8001ec8:	bf00      	nop
 8001eca:	bd80      	pop	{r7, pc}

08001ecc <EXTI6_IRQHandler>:

void EXTI6_IRQHandler(void)
{
 8001ecc:	b580      	push	{r7, lr}
 8001ece:	af00      	add	r7, sp, #0
    if (LL_EXTI_IsActiveFallingFlag_0_31(LL_EXTI_LINE_6) != 0U)
 8001ed0:	2040      	movs	r0, #64	; 0x40
 8001ed2:	f7ff ff3f 	bl	8001d54 <LL_EXTI_IsActiveFallingFlag_0_31>
 8001ed6:	4603      	mov	r3, r0
 8001ed8:	2b00      	cmp	r3, #0
 8001eda:	d005      	beq.n	8001ee8 <EXTI6_IRQHandler+0x1c>
    {
        LL_EXTI_ClearFallingFlag_0_31(LL_EXTI_LINE_6);
 8001edc:	2040      	movs	r0, #64	; 0x40
 8001ede:	f7ff ff4f 	bl	8001d80 <LL_EXTI_ClearFallingFlag_0_31>
        DDR5_OnButtonIRQ(BTN_CANCEL_PIN);
 8001ee2:	2040      	movs	r0, #64	; 0x40
 8001ee4:	f7ff ff82 	bl	8001dec <DDR5_OnButtonIRQ>
    }
}
 8001ee8:	bf00      	nop
 8001eea:	bd80      	pop	{r7, pc}

08001eec <SysTick_Handler>:

volatile uint32_t g_ms_ticks = 0;
static nhd0420_t g_lcd;

void SysTick_Handler(void)
{
 8001eec:	b480      	push	{r7}
 8001eee:	af00      	add	r7, sp, #0
    g_ms_ticks++;
 8001ef0:	4b04      	ldr	r3, [pc, #16]	; (8001f04 <SysTick_Handler+0x18>)
 8001ef2:	681b      	ldr	r3, [r3, #0]
 8001ef4:	3301      	adds	r3, #1
 8001ef6:	4a03      	ldr	r2, [pc, #12]	; (8001f04 <SysTick_Handler+0x18>)
 8001ef8:	6013      	str	r3, [r2, #0]
}
 8001efa:	bf00      	nop
 8001efc:	46bd      	mov	sp, r7
 8001efe:	f85d 7b04 	ldr.w	r7, [sp], #4
 8001f02:	4770      	bx	lr
 8001f04:	20000070 	.word	0x20000070

08001f08 <delay_ms>:

static inline void delay_ms(uint32_t ms)
{
 8001f08:	b480      	push	{r7}
 8001f0a:	b085      	sub	sp, #20
 8001f0c:	af00      	add	r7, sp, #0
 8001f0e:	6078      	str	r0, [r7, #4]
    uint32_t start = g_ms_ticks;
 8001f10:	4b08      	ldr	r3, [pc, #32]	; (8001f34 <delay_ms+0x2c>)
 8001f12:	681b      	ldr	r3, [r3, #0]
 8001f14:	60fb      	str	r3, [r7, #12]
    while ((g_ms_ticks - start) < ms)
 8001f16:	bf00      	nop
 8001f18:	4b06      	ldr	r3, [pc, #24]	; (8001f34 <delay_ms+0x2c>)
 8001f1a:	681a      	ldr	r2, [r3, #0]
 8001f1c:	68fb      	ldr	r3, [r7, #12]
 8001f1e:	1ad3      	subs	r3, r2, r3
 8001f20:	687a      	ldr	r2, [r7, #4]
 8001f22:	429a      	cmp	r2, r3
 8001f24:	d8f8      	bhi.n	8001f18 <delay_ms+0x10>
    {
    }
}
 8001f26:	bf00      	nop
 8001f28:	bf00      	nop
 8001f2a:	3714      	adds	r7, #20
 8001f2c:	46bd      	mov	sp, r7
 8001f2e:	f85d 7b04 	ldr.w	r7, [sp], #4
 8001f32:	4770      	bx	lr
 8001f34:	20000070 	.word	0x20000070

08001f38 <main>:

int main(void)
{
 8001f38:	b580      	push	{r7, lr}
 8001f3a:	b082      	sub	sp, #8
 8001f3c:	af00      	add	r7, sp, #0
    DDR5_Clock_Init();
 8001f3e:	f7ff fecb 	bl	8001cd8 <DDR5_Clock_Init>
    DDR5_GPIO_Init();
 8001f42:	f7fe fe7d 	bl	8000c40 <DDR5_GPIO_Init>
    DDR5_I2C1_Init();
 8001f46:	f7ff f901 	bl	800114c <DDR5_I2C1_Init>
    //MX_I2C1_Init();
    DDR5_UART_Init_115200_8N1(USART3, 64000000U);
 8001f4a:	4909      	ldr	r1, [pc, #36]	; (8001f70 <main+0x38>)
 8001f4c:	4809      	ldr	r0, [pc, #36]	; (8001f74 <main+0x3c>)
 8001f4e:	f7ff f984 	bl	800125a <DDR5_UART_Init_115200_8N1>

    delay_ms(200);
 8001f52:	20c8      	movs	r0, #200	; 0xc8
 8001f54:	f7ff ffd8 	bl	8001f08 <delay_ms>

    uint8_t data[2] = {0xFE, 0x42}; // Display ON
 8001f58:	f244 23fe 	movw	r3, #17150	; 0x42fe
 8001f5c:	803b      	strh	r3, [r7, #0]

    int rc = DDR5_I2C_Ping(I2C1, 0x50);
 8001f5e:	2150      	movs	r1, #80	; 0x50
 8001f60:	4805      	ldr	r0, [pc, #20]	; (8001f78 <main+0x40>)
 8001f62:	f7ff f809 	bl	8000f78 <DDR5_I2C_Ping>
 8001f66:	6078      	str	r0, [r7, #4]
    DDR5_I2C_Scan(I2C1);
 8001f68:	4803      	ldr	r0, [pc, #12]	; (8001f78 <main+0x40>)
 8001f6a:	f7ff f8b9 	bl	80010e0 <DDR5_I2C_Scan>

	while (1)
 8001f6e:	e7fe      	b.n	8001f6e <main+0x36>
 8001f70:	03d09000 	.word	0x03d09000
 8001f74:	40004800 	.word	0x40004800
 8001f78:	40005400 	.word	0x40005400

08001f7c <_sbrk>:
 *
 * @param incr Memory size
 * @return Pointer to allocated memory
 */
void *_sbrk(ptrdiff_t incr)
{
 8001f7c:	b580      	push	{r7, lr}
 8001f7e:	b086      	sub	sp, #24
 8001f80:	af00      	add	r7, sp, #0
 8001f82:	6078      	str	r0, [r7, #4]
  extern uint8_t _end; /* Symbol defined in the linker script */
  extern uint8_t _estack; /* Symbol defined in the linker script */
  extern uint32_t _Min_Stack_Size; /* Symbol defined in the linker script */
  const uint32_t stack_limit = (uint32_t)&_estack - (uint32_t)&_Min_Stack_Size;
 8001f84:	4a14      	ldr	r2, [pc, #80]	; (8001fd8 <_sbrk+0x5c>)
 8001f86:	4b15      	ldr	r3, [pc, #84]	; (8001fdc <_sbrk+0x60>)
 8001f88:	1ad3      	subs	r3, r2, r3
 8001f8a:	617b      	str	r3, [r7, #20]
  const uint8_t *max_heap = (uint8_t *)stack_limit;
 8001f8c:	697b      	ldr	r3, [r7, #20]
 8001f8e:	613b      	str	r3, [r7, #16]
  uint8_t *prev_heap_end;

  /* Initialize heap end at first call */
  if (NULL == __sbrk_heap_end)
 8001f90:	4b13      	ldr	r3, [pc, #76]	; (8001fe0 <_sbrk+0x64>)
 8001f92:	681b      	ldr	r3, [r3, #0]
 8001f94:	2b00      	cmp	r3, #0
 8001f96:	d102      	bne.n	8001f9e <_sbrk+0x22>
  {
    __sbrk_heap_end = &_end;
 8001f98:	4b11      	ldr	r3, [pc, #68]	; (8001fe0 <_sbrk+0x64>)
 8001f9a:	4a12      	ldr	r2, [pc, #72]	; (8001fe4 <_sbrk+0x68>)
 8001f9c:	601a      	str	r2, [r3, #0]
  }

  /* Protect heap from growing into the reserved MSP stack */
  if (__sbrk_heap_end + incr > max_heap)
 8001f9e:	4b10      	ldr	r3, [pc, #64]	; (8001fe0 <_sbrk+0x64>)
 8001fa0:	681a      	ldr	r2, [r3, #0]
 8001fa2:	687b      	ldr	r3, [r7, #4]
 8001fa4:	4413      	add	r3, r2
 8001fa6:	693a      	ldr	r2, [r7, #16]
 8001fa8:	429a      	cmp	r2, r3
 8001faa:	d207      	bcs.n	8001fbc <_sbrk+0x40>
  {
    errno = ENOMEM;
 8001fac:	f000 f8fa 	bl	80021a4 <__errno>
 8001fb0:	4603      	mov	r3, r0
 8001fb2:	220c      	movs	r2, #12
 8001fb4:	601a      	str	r2, [r3, #0]
    return (void *)-1;
 8001fb6:	f04f 33ff 	mov.w	r3, #4294967295
 8001fba:	e009      	b.n	8001fd0 <_sbrk+0x54>
  }

  prev_heap_end = __sbrk_heap_end;
 8001fbc:	4b08      	ldr	r3, [pc, #32]	; (8001fe0 <_sbrk+0x64>)
 8001fbe:	681b      	ldr	r3, [r3, #0]
 8001fc0:	60fb      	str	r3, [r7, #12]
  __sbrk_heap_end += incr;
 8001fc2:	4b07      	ldr	r3, [pc, #28]	; (8001fe0 <_sbrk+0x64>)
 8001fc4:	681a      	ldr	r2, [r3, #0]
 8001fc6:	687b      	ldr	r3, [r7, #4]
 8001fc8:	4413      	add	r3, r2
 8001fca:	4a05      	ldr	r2, [pc, #20]	; (8001fe0 <_sbrk+0x64>)
 8001fcc:	6013      	str	r3, [r2, #0]

  return (void *)prev_heap_end;
 8001fce:	68fb      	ldr	r3, [r7, #12]
}
 8001fd0:	4618      	mov	r0, r3
 8001fd2:	3718      	adds	r7, #24
 8001fd4:	46bd      	mov	sp, r7
 8001fd6:	bd80      	pop	{r7, pc}
 8001fd8:	200a0000 	.word	0x200a0000
 8001fdc:	00000400 	.word	0x00000400
 8001fe0:	20000074 	.word	0x20000074
 8001fe4:	200001c0 	.word	0x200001c0

08001fe8 <SystemInit>:
  * @param  None
  * @retval None
  */

void SystemInit(void)
{
 8001fe8:	b480      	push	{r7}
 8001fea:	b083      	sub	sp, #12
 8001fec:	af00      	add	r7, sp, #0
  uint32_t reg_opsr;

  /* FPU settings ------------------------------------------------------------*/
  #if (__FPU_PRESENT == 1) && (__FPU_USED == 1)
   SCB->CPACR |= ((3UL << 20U)|(3UL << 22U));  /* set CP10 and CP11 Full Access */
 8001fee:	4b37      	ldr	r3, [pc, #220]	; (80020cc <SystemInit+0xe4>)
 8001ff0:	f8d3 3088 	ldr.w	r3, [r3, #136]	; 0x88
 8001ff4:	4a35      	ldr	r2, [pc, #212]	; (80020cc <SystemInit+0xe4>)
 8001ff6:	f443 0370 	orr.w	r3, r3, #15728640	; 0xf00000
 8001ffa:	f8c2 3088 	str.w	r3, [r2, #136]	; 0x88
  #endif

  /* Reset the RCC clock configuration to the default reset state ------------*/
  /* Set HSION bit while preserving the current HSIDIV value*/
  RCC->CR = (RCC->CR & RCC_CR_HSIDIV_Msk) | RCC_CR_HSION;
 8001ffe:	4b34      	ldr	r3, [pc, #208]	; (80020d0 <SystemInit+0xe8>)
 8002000:	681b      	ldr	r3, [r3, #0]
 8002002:	f003 0318 	and.w	r3, r3, #24
 8002006:	4a32      	ldr	r2, [pc, #200]	; (80020d0 <SystemInit+0xe8>)
 8002008:	f043 0301 	orr.w	r3, r3, #1
 800200c:	6013      	str	r3, [r2, #0]

  /* Reset CFGR register */
  RCC->CFGR1 = 0U;
 800200e:	4b30      	ldr	r3, [pc, #192]	; (80020d0 <SystemInit+0xe8>)
 8002010:	2200      	movs	r2, #0
 8002012:	61da      	str	r2, [r3, #28]
  RCC->CFGR2 = 0U;
 8002014:	4b2e      	ldr	r3, [pc, #184]	; (80020d0 <SystemInit+0xe8>)
 8002016:	2200      	movs	r2, #0
 8002018:	621a      	str	r2, [r3, #32]

  /* Reset HSEON, HSECSSON, HSEBYP, HSEEXT, HSIDIV, HSIKERON, CSION, CSIKERON, HSI48 and PLLxON bits */
#if defined(RCC_CR_PLL3ON)
  RCC->CR &= ~(RCC_CR_HSEON | RCC_CR_HSECSSON | RCC_CR_HSEBYP | RCC_CR_HSEEXT | RCC_CR_HSIKERON | \
 800201a:	4b2d      	ldr	r3, [pc, #180]	; (80020d0 <SystemInit+0xe8>)
 800201c:	681a      	ldr	r2, [r3, #0]
 800201e:	492c      	ldr	r1, [pc, #176]	; (80020d0 <SystemInit+0xe8>)
 8002020:	4b2c      	ldr	r3, [pc, #176]	; (80020d4 <SystemInit+0xec>)
 8002022:	4013      	ands	r3, r2
 8002024:	600b      	str	r3, [r1, #0]
  RCC->CR &= ~(RCC_CR_HSEON | RCC_CR_HSECSSON | RCC_CR_HSEBYP | RCC_CR_HSEEXT | RCC_CR_HSIKERON | \
               RCC_CR_CSION | RCC_CR_CSIKERON |RCC_CR_HSI48ON | RCC_CR_PLL1ON | RCC_CR_PLL2ON);
#endif

  /* Reset PLLxCFGR register */
  RCC->PLL1CFGR = 0U;
 8002026:	4b2a      	ldr	r3, [pc, #168]	; (80020d0 <SystemInit+0xe8>)
 8002028:	2200      	movs	r2, #0
 800202a:	629a      	str	r2, [r3, #40]	; 0x28
  RCC->PLL2CFGR = 0U;
 800202c:	4b28      	ldr	r3, [pc, #160]	; (80020d0 <SystemInit+0xe8>)
 800202e:	2200      	movs	r2, #0
 8002030:	62da      	str	r2, [r3, #44]	; 0x2c
#if defined(RCC_CR_PLL3ON)
  RCC->PLL3CFGR = 0U;
 8002032:	4b27      	ldr	r3, [pc, #156]	; (80020d0 <SystemInit+0xe8>)
 8002034:	2200      	movs	r2, #0
 8002036:	631a      	str	r2, [r3, #48]	; 0x30
#endif /* RCC_CR_PLL3ON */

  /* Reset PLL1DIVR register */
  RCC->PLL1DIVR = 0x01010280U;
 8002038:	4b25      	ldr	r3, [pc, #148]	; (80020d0 <SystemInit+0xe8>)
 800203a:	4a27      	ldr	r2, [pc, #156]	; (80020d8 <SystemInit+0xf0>)
 800203c:	635a      	str	r2, [r3, #52]	; 0x34
  /* Reset PLL1FRACR register */
  RCC->PLL1FRACR = 0x00000000U;
 800203e:	4b24      	ldr	r3, [pc, #144]	; (80020d0 <SystemInit+0xe8>)
 8002040:	2200      	movs	r2, #0
 8002042:	639a      	str	r2, [r3, #56]	; 0x38
  /* Reset PLL2DIVR register */
  RCC->PLL2DIVR = 0x01010280U;
 8002044:	4b22      	ldr	r3, [pc, #136]	; (80020d0 <SystemInit+0xe8>)
 8002046:	4a24      	ldr	r2, [pc, #144]	; (80020d8 <SystemInit+0xf0>)
 8002048:	63da      	str	r2, [r3, #60]	; 0x3c
  /* Reset PLL2FRACR register */
  RCC->PLL2FRACR = 0x00000000U;
 800204a:	4b21      	ldr	r3, [pc, #132]	; (80020d0 <SystemInit+0xe8>)
 800204c:	2200      	movs	r2, #0
 800204e:	641a      	str	r2, [r3, #64]	; 0x40
#if defined(RCC_CR_PLL3ON)
  /* Reset PLL3DIVR register */
  RCC->PLL3DIVR = 0x01010280U;
 8002050:	4b1f      	ldr	r3, [pc, #124]	; (80020d0 <SystemInit+0xe8>)
 8002052:	4a21      	ldr	r2, [pc, #132]	; (80020d8 <SystemInit+0xf0>)
 8002054:	645a      	str	r2, [r3, #68]	; 0x44
  /* Reset PLL3FRACR register */
  RCC->PLL3FRACR = 0x00000000U;
 8002056:	4b1e      	ldr	r3, [pc, #120]	; (80020d0 <SystemInit+0xe8>)
 8002058:	2200      	movs	r2, #0
 800205a:	649a      	str	r2, [r3, #72]	; 0x48
#endif /* RCC_CR_PLL3ON */

  /* Reset HSEBYP bit */
  RCC->CR &= ~(RCC_CR_HSEBYP);
 800205c:	4b1c      	ldr	r3, [pc, #112]	; (80020d0 <SystemInit+0xe8>)
 800205e:	681b      	ldr	r3, [r3, #0]
 8002060:	4a1b      	ldr	r2, [pc, #108]	; (80020d0 <SystemInit+0xe8>)
 8002062:	f423 2380 	bic.w	r3, r3, #262144	; 0x40000
 8002066:	6013      	str	r3, [r2, #0]

  /* Disable all interrupts */
  RCC->CIER = 0U;
 8002068:	4b19      	ldr	r3, [pc, #100]	; (80020d0 <SystemInit+0xe8>)
 800206a:	2200      	movs	r2, #0
 800206c:	651a      	str	r2, [r3, #80]	; 0x50

  /* Configure the Vector Table location add offset address ------------------*/
  #ifdef VECT_TAB_SRAM
    SCB->VTOR = SRAM1_BASE | VECT_TAB_OFFSET; /* Vector Table Relocation in Internal SRAM */
  #else
    SCB->VTOR = FLASH_BASE | VECT_TAB_OFFSET; /* Vector Table Relocation in Internal FLASH */
 800206e:	4b17      	ldr	r3, [pc, #92]	; (80020cc <SystemInit+0xe4>)
 8002070:	f04f 6200 	mov.w	r2, #134217728	; 0x8000000
 8002074:	609a      	str	r2, [r3, #8]
  #endif /* VECT_TAB_SRAM */

  /* Check OPSR register to verify if there is an ongoing swap or option bytes update interrupted by a reset */
  reg_opsr = FLASH->OPSR & FLASH_OPSR_CODE_OP;
 8002076:	4b19      	ldr	r3, [pc, #100]	; (80020dc <SystemInit+0xf4>)
 8002078:	699b      	ldr	r3, [r3, #24]
 800207a:	f003 4360 	and.w	r3, r3, #3758096384	; 0xe0000000
 800207e:	607b      	str	r3, [r7, #4]
  if ((reg_opsr == FLASH_OPSR_CODE_OP) || (reg_opsr == (FLASH_OPSR_CODE_OP_2 | FLASH_OPSR_CODE_OP_1)))
 8002080:	687b      	ldr	r3, [r7, #4]
 8002082:	f1b3 4f60 	cmp.w	r3, #3758096384	; 0xe0000000
 8002086:	d003      	beq.n	8002090 <SystemInit+0xa8>
 8002088:	687b      	ldr	r3, [r7, #4]
 800208a:	f1b3 4f40 	cmp.w	r3, #3221225472	; 0xc0000000
 800208e:	d117      	bne.n	80020c0 <SystemInit+0xd8>
  {
    /* Check FLASH Option Control Register access */
    if ((FLASH->OPTCR & FLASH_OPTCR_OPTLOCK) != 0U)
 8002090:	4b12      	ldr	r3, [pc, #72]	; (80020dc <SystemInit+0xf4>)
 8002092:	69db      	ldr	r3, [r3, #28]
 8002094:	f003 0301 	and.w	r3, r3, #1
 8002098:	2b00      	cmp	r3, #0
 800209a:	d005      	beq.n	80020a8 <SystemInit+0xc0>
    {
      /* Authorizes the Option Byte registers programming */
      FLASH->OPTKEYR = 0x08192A3BU;
 800209c:	4b0f      	ldr	r3, [pc, #60]	; (80020dc <SystemInit+0xf4>)
 800209e:	4a10      	ldr	r2, [pc, #64]	; (80020e0 <SystemInit+0xf8>)
 80020a0:	60da      	str	r2, [r3, #12]
      FLASH->OPTKEYR = 0x4C5D6E7FU;
 80020a2:	4b0e      	ldr	r3, [pc, #56]	; (80020dc <SystemInit+0xf4>)
 80020a4:	4a0f      	ldr	r2, [pc, #60]	; (80020e4 <SystemInit+0xfc>)
 80020a6:	60da      	str	r2, [r3, #12]
    }
    /* Launch the option bytes change operation */
    FLASH->OPTCR |= FLASH_OPTCR_OPTSTART;
 80020a8:	4b0c      	ldr	r3, [pc, #48]	; (80020dc <SystemInit+0xf4>)
 80020aa:	69db      	ldr	r3, [r3, #28]
 80020ac:	4a0b      	ldr	r2, [pc, #44]	; (80020dc <SystemInit+0xf4>)
 80020ae:	f043 0302 	orr.w	r3, r3, #2
 80020b2:	61d3      	str	r3, [r2, #28]

    /* Lock the FLASH Option Control Register access */
    FLASH->OPTCR |= FLASH_OPTCR_OPTLOCK;
 80020b4:	4b09      	ldr	r3, [pc, #36]	; (80020dc <SystemInit+0xf4>)
 80020b6:	69db      	ldr	r3, [r3, #28]
 80020b8:	4a08      	ldr	r2, [pc, #32]	; (80020dc <SystemInit+0xf4>)
 80020ba:	f043 0301 	orr.w	r3, r3, #1
 80020be:	61d3      	str	r3, [r2, #28]
  }
}
 80020c0:	bf00      	nop
 80020c2:	370c      	adds	r7, #12
 80020c4:	46bd      	mov	sp, r7
 80020c6:	f85d 7b04 	ldr.w	r7, [sp], #4
 80020ca:	4770      	bx	lr
 80020cc:	e000ed00 	.word	0xe000ed00
 80020d0:	44020c00 	.word	0x44020c00
 80020d4:	eae2eafb 	.word	0xeae2eafb
 80020d8:	01010280 	.word	0x01010280
 80020dc:	40022000 	.word	0x40022000
 80020e0:	08192a3b 	.word	0x08192a3b
 80020e4:	4c5d6e7f 	.word	0x4c5d6e7f

080020e8 <Reset_Handler>:

  .section .text.Reset_Handler
  .weak Reset_Handler
  .type Reset_Handler, %function
Reset_Handler:
  ldr   r0, =_estack
 80020e8:	480d      	ldr	r0, [pc, #52]	; (8002120 <LoopForever+0x2>)
  mov   sp, r0          /* set stack pointer */
 80020ea:	4685      	mov	sp, r0
/* Call the clock system initialization function.*/
  bl  SystemInit
 80020ec:	f7ff ff7c 	bl	8001fe8 <SystemInit>

/* Copy the data segment initializers from flash to SRAM */
  ldr r0, =_sdata
 80020f0:	480c      	ldr	r0, [pc, #48]	; (8002124 <LoopForever+0x6>)
  ldr r1, =_edata
 80020f2:	490d      	ldr	r1, [pc, #52]	; (8002128 <LoopForever+0xa>)
  ldr r2, =_sidata
 80020f4:	4a0d      	ldr	r2, [pc, #52]	; (800212c <LoopForever+0xe>)
  movs r3, #0
 80020f6:	2300      	movs	r3, #0
  b LoopCopyDataInit
 80020f8:	e002      	b.n	8002100 <LoopCopyDataInit>

080020fa <CopyDataInit>:

CopyDataInit:
  ldr r4, [r2, r3]
 80020fa:	58d4      	ldr	r4, [r2, r3]
  str r4, [r0, r3]
 80020fc:	50c4      	str	r4, [r0, r3]
  adds r3, r3, #4
 80020fe:	3304      	adds	r3, #4

08002100 <LoopCopyDataInit>:

LoopCopyDataInit:
  adds r4, r0, r3
 8002100:	18c4      	adds	r4, r0, r3
  cmp r4, r1
 8002102:	428c      	cmp	r4, r1
  bcc CopyDataInit
 8002104:	d3f9      	bcc.n	80020fa <CopyDataInit>

/* Zero fill the bss segment. */
  ldr r2, =_sbss
 8002106:	4a0a      	ldr	r2, [pc, #40]	; (8002130 <LoopForever+0x12>)
  ldr r4, =_ebss
 8002108:	4c0a      	ldr	r4, [pc, #40]	; (8002134 <LoopForever+0x16>)
  movs r3, #0
 800210a:	2300      	movs	r3, #0
  b LoopFillZerobss
 800210c:	e001      	b.n	8002112 <LoopFillZerobss>

0800210e <FillZerobss>:

FillZerobss:
  str  r3, [r2]
 800210e:	6013      	str	r3, [r2, #0]
  adds r2, r2, #4
 8002110:	3204      	adds	r2, #4

08002112 <LoopFillZerobss>:

LoopFillZerobss:
  cmp r2, r4
 8002112:	42a2      	cmp	r2, r4
  bcc FillZerobss
 8002114:	d3fb      	bcc.n	800210e <FillZerobss>

/* Call static constructors */
  bl __libc_init_array
 8002116:	f000 f84b 	bl	80021b0 <__libc_init_array>
/* Call the application's entry point.*/
  bl main
 800211a:	f7ff ff0d 	bl	8001f38 <main>

0800211e <LoopForever>:

LoopForever:
  b LoopForever
 800211e:	e7fe      	b.n	800211e <LoopForever>
  ldr   r0, =_estack
 8002120:	200a0000 	.word	0x200a0000
  ldr r0, =_sdata
 8002124:	20000000 	.word	0x20000000
  ldr r1, =_edata
 8002128:	20000054 	.word	0x20000054
  ldr r2, =_sidata
 800212c:	08002b68 	.word	0x08002b68
  ldr r2, =_sbss
 8002130:	20000054 	.word	0x20000054
  ldr r4, =_ebss
 8002134:	200001c0 	.word	0x200001c0

08002138 <ADC1_IRQHandler>:
 * @retval : None
*/
  .section .text.Default_Handler,"ax",%progbits
Default_Handler:
Infinite_Loop:
  b Infinite_Loop
 8002138:	e7fe      	b.n	8002138 <ADC1_IRQHandler>
	...

0800213c <sniprintf>:
 800213c:	b40c      	push	{r2, r3}
 800213e:	4b18      	ldr	r3, [pc, #96]	; (80021a0 <sniprintf+0x64>)
 8002140:	b530      	push	{r4, r5, lr}
 8002142:	1e0c      	subs	r4, r1, #0
 8002144:	b09d      	sub	sp, #116	; 0x74
 8002146:	681d      	ldr	r5, [r3, #0]
 8002148:	da08      	bge.n	800215c <sniprintf+0x20>
 800214a:	238b      	movs	r3, #139	; 0x8b
 800214c:	f04f 30ff 	mov.w	r0, #4294967295
 8002150:	602b      	str	r3, [r5, #0]
 8002152:	b01d      	add	sp, #116	; 0x74
 8002154:	e8bd 4030 	ldmia.w	sp!, {r4, r5, lr}
 8002158:	b002      	add	sp, #8
 800215a:	4770      	bx	lr
 800215c:	f44f 7302 	mov.w	r3, #520	; 0x208
 8002160:	9002      	str	r0, [sp, #8]
 8002162:	9006      	str	r0, [sp, #24]
 8002164:	a902      	add	r1, sp, #8
 8002166:	f8ad 3014 	strh.w	r3, [sp, #20]
 800216a:	bf14      	ite	ne
 800216c:	f104 33ff 	addne.w	r3, r4, #4294967295
 8002170:	4623      	moveq	r3, r4
 8002172:	9a20      	ldr	r2, [sp, #128]	; 0x80
 8002174:	4628      	mov	r0, r5
 8002176:	9304      	str	r3, [sp, #16]
 8002178:	9307      	str	r3, [sp, #28]
 800217a:	f64f 73ff 	movw	r3, #65535	; 0xffff
 800217e:	f8ad 3016 	strh.w	r3, [sp, #22]
 8002182:	ab21      	add	r3, sp, #132	; 0x84
 8002184:	9301      	str	r3, [sp, #4]
 8002186:	f000 f98b 	bl	80024a0 <_svfiprintf_r>
 800218a:	1c43      	adds	r3, r0, #1
 800218c:	bfbc      	itt	lt
 800218e:	238b      	movlt	r3, #139	; 0x8b
 8002190:	602b      	strlt	r3, [r5, #0]
 8002192:	2c00      	cmp	r4, #0
 8002194:	d0dd      	beq.n	8002152 <sniprintf+0x16>
 8002196:	9b02      	ldr	r3, [sp, #8]
 8002198:	2200      	movs	r2, #0
 800219a:	701a      	strb	r2, [r3, #0]
 800219c:	e7d9      	b.n	8002152 <sniprintf+0x16>
 800219e:	bf00      	nop
 80021a0:	20000050 	.word	0x20000050

080021a4 <__errno>:
 80021a4:	4b01      	ldr	r3, [pc, #4]	; (80021ac <__errno+0x8>)
 80021a6:	6818      	ldr	r0, [r3, #0]
 80021a8:	4770      	bx	lr
 80021aa:	bf00      	nop
 80021ac:	20000050 	.word	0x20000050

080021b0 <__libc_init_array>:
 80021b0:	b570      	push	{r4, r5, r6, lr}
 80021b2:	4d0d      	ldr	r5, [pc, #52]	; (80021e8 <__libc_init_array+0x38>)
 80021b4:	2600      	movs	r6, #0
 80021b6:	4c0d      	ldr	r4, [pc, #52]	; (80021ec <__libc_init_array+0x3c>)
 80021b8:	1b64      	subs	r4, r4, r5
 80021ba:	10a4      	asrs	r4, r4, #2
 80021bc:	42a6      	cmp	r6, r4
 80021be:	d109      	bne.n	80021d4 <__libc_init_array+0x24>
 80021c0:	4d0b      	ldr	r5, [pc, #44]	; (80021f0 <__libc_init_array+0x40>)
 80021c2:	2600      	movs	r6, #0
 80021c4:	4c0b      	ldr	r4, [pc, #44]	; (80021f4 <__libc_init_array+0x44>)
 80021c6:	f000 fc77 	bl	8002ab8 <_init>
 80021ca:	1b64      	subs	r4, r4, r5
 80021cc:	10a4      	asrs	r4, r4, #2
 80021ce:	42a6      	cmp	r6, r4
 80021d0:	d105      	bne.n	80021de <__libc_init_array+0x2e>
 80021d2:	bd70      	pop	{r4, r5, r6, pc}
 80021d4:	f855 3b04 	ldr.w	r3, [r5], #4
 80021d8:	3601      	adds	r6, #1
 80021da:	4798      	blx	r3
 80021dc:	e7ee      	b.n	80021bc <__libc_init_array+0xc>
 80021de:	f855 3b04 	ldr.w	r3, [r5], #4
 80021e2:	3601      	adds	r6, #1
 80021e4:	4798      	blx	r3
 80021e6:	e7f2      	b.n	80021ce <__libc_init_array+0x1e>
 80021e8:	08002b60 	.word	0x08002b60
 80021ec:	08002b60 	.word	0x08002b60
 80021f0:	08002b60 	.word	0x08002b60
 80021f4:	08002b64 	.word	0x08002b64

080021f8 <__retarget_lock_acquire_recursive>:
 80021f8:	4770      	bx	lr

080021fa <__retarget_lock_release_recursive>:
 80021fa:	4770      	bx	lr

080021fc <_free_r>:
 80021fc:	b537      	push	{r0, r1, r2, r4, r5, lr}
 80021fe:	2900      	cmp	r1, #0
 8002200:	d043      	beq.n	800228a <_free_r+0x8e>
 8002202:	f851 3c04 	ldr.w	r3, [r1, #-4]
 8002206:	1f0c      	subs	r4, r1, #4
 8002208:	9001      	str	r0, [sp, #4]
 800220a:	2b00      	cmp	r3, #0
 800220c:	bfb8      	it	lt
 800220e:	18e4      	addlt	r4, r4, r3
 8002210:	f000 f8e0 	bl	80023d4 <__malloc_lock>
 8002214:	4a1e      	ldr	r2, [pc, #120]	; (8002290 <_free_r+0x94>)
 8002216:	9801      	ldr	r0, [sp, #4]
 8002218:	6813      	ldr	r3, [r2, #0]
 800221a:	b933      	cbnz	r3, 800222a <_free_r+0x2e>
 800221c:	6063      	str	r3, [r4, #4]
 800221e:	6014      	str	r4, [r2, #0]
 8002220:	b003      	add	sp, #12
 8002222:	e8bd 4030 	ldmia.w	sp!, {r4, r5, lr}
 8002226:	f000 b8db 	b.w	80023e0 <__malloc_unlock>
 800222a:	42a3      	cmp	r3, r4
 800222c:	d908      	bls.n	8002240 <_free_r+0x44>
 800222e:	6825      	ldr	r5, [r4, #0]
 8002230:	1961      	adds	r1, r4, r5
 8002232:	428b      	cmp	r3, r1
 8002234:	bf01      	itttt	eq
 8002236:	6819      	ldreq	r1, [r3, #0]
 8002238:	685b      	ldreq	r3, [r3, #4]
 800223a:	1949      	addeq	r1, r1, r5
 800223c:	6021      	streq	r1, [r4, #0]
 800223e:	e7ed      	b.n	800221c <_free_r+0x20>
 8002240:	461a      	mov	r2, r3
 8002242:	685b      	ldr	r3, [r3, #4]
 8002244:	b10b      	cbz	r3, 800224a <_free_r+0x4e>
 8002246:	42a3      	cmp	r3, r4
 8002248:	d9fa      	bls.n	8002240 <_free_r+0x44>
 800224a:	6811      	ldr	r1, [r2, #0]
 800224c:	1855      	adds	r5, r2, r1
 800224e:	42a5      	cmp	r5, r4
 8002250:	d10b      	bne.n	800226a <_free_r+0x6e>
 8002252:	6824      	ldr	r4, [r4, #0]
 8002254:	4421      	add	r1, r4
 8002256:	1854      	adds	r4, r2, r1
 8002258:	6011      	str	r1, [r2, #0]
 800225a:	42a3      	cmp	r3, r4
 800225c:	d1e0      	bne.n	8002220 <_free_r+0x24>
 800225e:	681c      	ldr	r4, [r3, #0]
 8002260:	685b      	ldr	r3, [r3, #4]
 8002262:	440c      	add	r4, r1
 8002264:	6053      	str	r3, [r2, #4]
 8002266:	6014      	str	r4, [r2, #0]
 8002268:	e7da      	b.n	8002220 <_free_r+0x24>
 800226a:	d902      	bls.n	8002272 <_free_r+0x76>
 800226c:	230c      	movs	r3, #12
 800226e:	6003      	str	r3, [r0, #0]
 8002270:	e7d6      	b.n	8002220 <_free_r+0x24>
 8002272:	6825      	ldr	r5, [r4, #0]
 8002274:	1961      	adds	r1, r4, r5
 8002276:	428b      	cmp	r3, r1
 8002278:	bf02      	ittt	eq
 800227a:	6819      	ldreq	r1, [r3, #0]
 800227c:	685b      	ldreq	r3, [r3, #4]
 800227e:	1949      	addeq	r1, r1, r5
 8002280:	6063      	str	r3, [r4, #4]
 8002282:	bf08      	it	eq
 8002284:	6021      	streq	r1, [r4, #0]
 8002286:	6054      	str	r4, [r2, #4]
 8002288:	e7ca      	b.n	8002220 <_free_r+0x24>
 800228a:	b003      	add	sp, #12
 800228c:	bd30      	pop	{r4, r5, pc}
 800228e:	bf00      	nop
 8002290:	200001b8 	.word	0x200001b8

08002294 <sbrk_aligned>:
 8002294:	b570      	push	{r4, r5, r6, lr}
 8002296:	4e0e      	ldr	r6, [pc, #56]	; (80022d0 <sbrk_aligned+0x3c>)
 8002298:	460c      	mov	r4, r1
 800229a:	4605      	mov	r5, r0
 800229c:	6831      	ldr	r1, [r6, #0]
 800229e:	b911      	cbnz	r1, 80022a6 <sbrk_aligned+0x12>
 80022a0:	f000 fba8 	bl	80029f4 <_sbrk_r>
 80022a4:	6030      	str	r0, [r6, #0]
 80022a6:	4621      	mov	r1, r4
 80022a8:	4628      	mov	r0, r5
 80022aa:	f000 fba3 	bl	80029f4 <_sbrk_r>
 80022ae:	1c43      	adds	r3, r0, #1
 80022b0:	d00a      	beq.n	80022c8 <sbrk_aligned+0x34>
 80022b2:	1cc4      	adds	r4, r0, #3
 80022b4:	f024 0403 	bic.w	r4, r4, #3
 80022b8:	42a0      	cmp	r0, r4
 80022ba:	d007      	beq.n	80022cc <sbrk_aligned+0x38>
 80022bc:	1a21      	subs	r1, r4, r0
 80022be:	4628      	mov	r0, r5
 80022c0:	f000 fb98 	bl	80029f4 <_sbrk_r>
 80022c4:	3001      	adds	r0, #1
 80022c6:	d101      	bne.n	80022cc <sbrk_aligned+0x38>
 80022c8:	f04f 34ff 	mov.w	r4, #4294967295
 80022cc:	4620      	mov	r0, r4
 80022ce:	bd70      	pop	{r4, r5, r6, pc}
 80022d0:	200001bc 	.word	0x200001bc

080022d4 <_malloc_r>:
 80022d4:	e92d 43f8 	stmdb	sp!, {r3, r4, r5, r6, r7, r8, r9, lr}
 80022d8:	1ccd      	adds	r5, r1, #3
 80022da:	4607      	mov	r7, r0
 80022dc:	f025 0503 	bic.w	r5, r5, #3
 80022e0:	3508      	adds	r5, #8
 80022e2:	2d0c      	cmp	r5, #12
 80022e4:	bf38      	it	cc
 80022e6:	250c      	movcc	r5, #12
 80022e8:	2d00      	cmp	r5, #0
 80022ea:	db01      	blt.n	80022f0 <_malloc_r+0x1c>
 80022ec:	42a9      	cmp	r1, r5
 80022ee:	d905      	bls.n	80022fc <_malloc_r+0x28>
 80022f0:	230c      	movs	r3, #12
 80022f2:	2600      	movs	r6, #0
 80022f4:	603b      	str	r3, [r7, #0]
 80022f6:	4630      	mov	r0, r6
 80022f8:	e8bd 83f8 	ldmia.w	sp!, {r3, r4, r5, r6, r7, r8, r9, pc}
 80022fc:	f8df 80d0 	ldr.w	r8, [pc, #208]	; 80023d0 <_malloc_r+0xfc>
 8002300:	f000 f868 	bl	80023d4 <__malloc_lock>
 8002304:	f8d8 3000 	ldr.w	r3, [r8]
 8002308:	461c      	mov	r4, r3
 800230a:	bb5c      	cbnz	r4, 8002364 <_malloc_r+0x90>
 800230c:	4629      	mov	r1, r5
 800230e:	4638      	mov	r0, r7
 8002310:	f7ff ffc0 	bl	8002294 <sbrk_aligned>
 8002314:	1c43      	adds	r3, r0, #1
 8002316:	4604      	mov	r4, r0
 8002318:	d155      	bne.n	80023c6 <_malloc_r+0xf2>
 800231a:	f8d8 4000 	ldr.w	r4, [r8]
 800231e:	4626      	mov	r6, r4
 8002320:	2e00      	cmp	r6, #0
 8002322:	d145      	bne.n	80023b0 <_malloc_r+0xdc>
 8002324:	2c00      	cmp	r4, #0
 8002326:	d048      	beq.n	80023ba <_malloc_r+0xe6>
 8002328:	6823      	ldr	r3, [r4, #0]
 800232a:	4631      	mov	r1, r6
 800232c:	4638      	mov	r0, r7
 800232e:	eb04 0903 	add.w	r9, r4, r3
 8002332:	f000 fb5f 	bl	80029f4 <_sbrk_r>
 8002336:	4581      	cmp	r9, r0
 8002338:	d13f      	bne.n	80023ba <_malloc_r+0xe6>
 800233a:	6821      	ldr	r1, [r4, #0]
 800233c:	4638      	mov	r0, r7
 800233e:	1a6d      	subs	r5, r5, r1
 8002340:	4629      	mov	r1, r5
 8002342:	f7ff ffa7 	bl	8002294 <sbrk_aligned>
 8002346:	3001      	adds	r0, #1
 8002348:	d037      	beq.n	80023ba <_malloc_r+0xe6>
 800234a:	6823      	ldr	r3, [r4, #0]
 800234c:	442b      	add	r3, r5
 800234e:	6023      	str	r3, [r4, #0]
 8002350:	f8d8 3000 	ldr.w	r3, [r8]
 8002354:	2b00      	cmp	r3, #0
 8002356:	d038      	beq.n	80023ca <_malloc_r+0xf6>
 8002358:	685a      	ldr	r2, [r3, #4]
 800235a:	42a2      	cmp	r2, r4
 800235c:	d12b      	bne.n	80023b6 <_malloc_r+0xe2>
 800235e:	2200      	movs	r2, #0
 8002360:	605a      	str	r2, [r3, #4]
 8002362:	e00f      	b.n	8002384 <_malloc_r+0xb0>
 8002364:	6822      	ldr	r2, [r4, #0]
 8002366:	1b52      	subs	r2, r2, r5
 8002368:	d41f      	bmi.n	80023aa <_malloc_r+0xd6>
 800236a:	2a0b      	cmp	r2, #11
 800236c:	d917      	bls.n	800239e <_malloc_r+0xca>
 800236e:	1961      	adds	r1, r4, r5
 8002370:	42a3      	cmp	r3, r4
 8002372:	6025      	str	r5, [r4, #0]
 8002374:	bf18      	it	ne
 8002376:	6059      	strne	r1, [r3, #4]
 8002378:	6863      	ldr	r3, [r4, #4]
 800237a:	bf08      	it	eq
 800237c:	f8c8 1000 	streq.w	r1, [r8]
 8002380:	5162      	str	r2, [r4, r5]
 8002382:	604b      	str	r3, [r1, #4]
 8002384:	f104 060b 	add.w	r6, r4, #11
 8002388:	4638      	mov	r0, r7
 800238a:	f000 f829 	bl	80023e0 <__malloc_unlock>
 800238e:	1d23      	adds	r3, r4, #4
 8002390:	f026 0607 	bic.w	r6, r6, #7
 8002394:	1af2      	subs	r2, r6, r3
 8002396:	d0ae      	beq.n	80022f6 <_malloc_r+0x22>
 8002398:	1b9b      	subs	r3, r3, r6
 800239a:	50a3      	str	r3, [r4, r2]
 800239c:	e7ab      	b.n	80022f6 <_malloc_r+0x22>
 800239e:	42a3      	cmp	r3, r4
 80023a0:	6862      	ldr	r2, [r4, #4]
 80023a2:	d1dd      	bne.n	8002360 <_malloc_r+0x8c>
 80023a4:	f8c8 2000 	str.w	r2, [r8]
 80023a8:	e7ec      	b.n	8002384 <_malloc_r+0xb0>
 80023aa:	4623      	mov	r3, r4
 80023ac:	6864      	ldr	r4, [r4, #4]
 80023ae:	e7ac      	b.n	800230a <_malloc_r+0x36>
 80023b0:	4634      	mov	r4, r6
 80023b2:	6876      	ldr	r6, [r6, #4]
 80023b4:	e7b4      	b.n	8002320 <_malloc_r+0x4c>
 80023b6:	4613      	mov	r3, r2
 80023b8:	e7cc      	b.n	8002354 <_malloc_r+0x80>
 80023ba:	230c      	movs	r3, #12
 80023bc:	4638      	mov	r0, r7
 80023be:	603b      	str	r3, [r7, #0]
 80023c0:	f000 f80e 	bl	80023e0 <__malloc_unlock>
 80023c4:	e797      	b.n	80022f6 <_malloc_r+0x22>
 80023c6:	6025      	str	r5, [r4, #0]
 80023c8:	e7dc      	b.n	8002384 <_malloc_r+0xb0>
 80023ca:	605b      	str	r3, [r3, #4]
 80023cc:	deff      	udf	#255	; 0xff
 80023ce:	bf00      	nop
 80023d0:	200001b8 	.word	0x200001b8

080023d4 <__malloc_lock>:
 80023d4:	4801      	ldr	r0, [pc, #4]	; (80023dc <__malloc_lock+0x8>)
 80023d6:	f7ff bf0f 	b.w	80021f8 <__retarget_lock_acquire_recursive>
 80023da:	bf00      	nop
 80023dc:	200001b4 	.word	0x200001b4

080023e0 <__malloc_unlock>:
 80023e0:	4801      	ldr	r0, [pc, #4]	; (80023e8 <__malloc_unlock+0x8>)
 80023e2:	f7ff bf0a 	b.w	80021fa <__retarget_lock_release_recursive>
 80023e6:	bf00      	nop
 80023e8:	200001b4 	.word	0x200001b4

080023ec <__ssputs_r>:
 80023ec:	e92d 47f0 	stmdb	sp!, {r4, r5, r6, r7, r8, r9, sl, lr}
 80023f0:	461f      	mov	r7, r3
 80023f2:	688e      	ldr	r6, [r1, #8]
 80023f4:	4682      	mov	sl, r0
 80023f6:	460c      	mov	r4, r1
 80023f8:	42be      	cmp	r6, r7
 80023fa:	4690      	mov	r8, r2
 80023fc:	680b      	ldr	r3, [r1, #0]
 80023fe:	d82c      	bhi.n	800245a <__ssputs_r+0x6e>
 8002400:	898a      	ldrh	r2, [r1, #12]
 8002402:	f412 6f90 	tst.w	r2, #1152	; 0x480
 8002406:	d026      	beq.n	8002456 <__ssputs_r+0x6a>
 8002408:	6965      	ldr	r5, [r4, #20]
 800240a:	6909      	ldr	r1, [r1, #16]
 800240c:	eb05 0545 	add.w	r5, r5, r5, lsl #1
 8002410:	eba3 0901 	sub.w	r9, r3, r1
 8002414:	1c7b      	adds	r3, r7, #1
 8002416:	eb05 75d5 	add.w	r5, r5, r5, lsr #31
 800241a:	444b      	add	r3, r9
 800241c:	106d      	asrs	r5, r5, #1
 800241e:	429d      	cmp	r5, r3
 8002420:	bf38      	it	cc
 8002422:	461d      	movcc	r5, r3
 8002424:	0553      	lsls	r3, r2, #21
 8002426:	d527      	bpl.n	8002478 <__ssputs_r+0x8c>
 8002428:	4629      	mov	r1, r5
 800242a:	f7ff ff53 	bl	80022d4 <_malloc_r>
 800242e:	4606      	mov	r6, r0
 8002430:	b360      	cbz	r0, 800248c <__ssputs_r+0xa0>
 8002432:	464a      	mov	r2, r9
 8002434:	6921      	ldr	r1, [r4, #16]
 8002436:	f000 fafb 	bl	8002a30 <memcpy>
 800243a:	89a3      	ldrh	r3, [r4, #12]
 800243c:	f423 6390 	bic.w	r3, r3, #1152	; 0x480
 8002440:	f043 0380 	orr.w	r3, r3, #128	; 0x80
 8002444:	81a3      	strh	r3, [r4, #12]
 8002446:	6126      	str	r6, [r4, #16]
 8002448:	444e      	add	r6, r9
 800244a:	6165      	str	r5, [r4, #20]
 800244c:	eba5 0509 	sub.w	r5, r5, r9
 8002450:	6026      	str	r6, [r4, #0]
 8002452:	463e      	mov	r6, r7
 8002454:	60a5      	str	r5, [r4, #8]
 8002456:	42be      	cmp	r6, r7
 8002458:	d900      	bls.n	800245c <__ssputs_r+0x70>
 800245a:	463e      	mov	r6, r7
 800245c:	4632      	mov	r2, r6
 800245e:	4641      	mov	r1, r8
 8002460:	6820      	ldr	r0, [r4, #0]
 8002462:	f000 faad 	bl	80029c0 <memmove>
 8002466:	68a3      	ldr	r3, [r4, #8]
 8002468:	2000      	movs	r0, #0
 800246a:	1b9b      	subs	r3, r3, r6
 800246c:	60a3      	str	r3, [r4, #8]
 800246e:	6823      	ldr	r3, [r4, #0]
 8002470:	4433      	add	r3, r6
 8002472:	6023      	str	r3, [r4, #0]
 8002474:	e8bd 87f0 	ldmia.w	sp!, {r4, r5, r6, r7, r8, r9, sl, pc}
 8002478:	462a      	mov	r2, r5
 800247a:	f000 fae6 	bl	8002a4a <_realloc_r>
 800247e:	4606      	mov	r6, r0
 8002480:	2800      	cmp	r0, #0
 8002482:	d1e0      	bne.n	8002446 <__ssputs_r+0x5a>
 8002484:	6921      	ldr	r1, [r4, #16]
 8002486:	4650      	mov	r0, sl
 8002488:	f7ff feb8 	bl	80021fc <_free_r>
 800248c:	230c      	movs	r3, #12
 800248e:	f04f 30ff 	mov.w	r0, #4294967295
 8002492:	f8ca 3000 	str.w	r3, [sl]
 8002496:	89a3      	ldrh	r3, [r4, #12]
 8002498:	f043 0340 	orr.w	r3, r3, #64	; 0x40
 800249c:	81a3      	strh	r3, [r4, #12]
 800249e:	e7e9      	b.n	8002474 <__ssputs_r+0x88>

080024a0 <_svfiprintf_r>:
 80024a0:	e92d 4ff0 	stmdb	sp!, {r4, r5, r6, r7, r8, r9, sl, fp, lr}
 80024a4:	4698      	mov	r8, r3
 80024a6:	898b      	ldrh	r3, [r1, #12]
 80024a8:	b09d      	sub	sp, #116	; 0x74
 80024aa:	4607      	mov	r7, r0
 80024ac:	061b      	lsls	r3, r3, #24
 80024ae:	460d      	mov	r5, r1
 80024b0:	4614      	mov	r4, r2
 80024b2:	d50e      	bpl.n	80024d2 <_svfiprintf_r+0x32>
 80024b4:	690b      	ldr	r3, [r1, #16]
 80024b6:	b963      	cbnz	r3, 80024d2 <_svfiprintf_r+0x32>
 80024b8:	2140      	movs	r1, #64	; 0x40
 80024ba:	f7ff ff0b 	bl	80022d4 <_malloc_r>
 80024be:	6028      	str	r0, [r5, #0]
 80024c0:	6128      	str	r0, [r5, #16]
 80024c2:	b920      	cbnz	r0, 80024ce <_svfiprintf_r+0x2e>
 80024c4:	230c      	movs	r3, #12
 80024c6:	603b      	str	r3, [r7, #0]
 80024c8:	f04f 30ff 	mov.w	r0, #4294967295
 80024cc:	e0d0      	b.n	8002670 <_svfiprintf_r+0x1d0>
 80024ce:	2340      	movs	r3, #64	; 0x40
 80024d0:	616b      	str	r3, [r5, #20]
 80024d2:	2300      	movs	r3, #0
 80024d4:	f8cd 800c 	str.w	r8, [sp, #12]
 80024d8:	f04f 0901 	mov.w	r9, #1
 80024dc:	f8df 81a8 	ldr.w	r8, [pc, #424]	; 8002688 <_svfiprintf_r+0x1e8>
 80024e0:	9309      	str	r3, [sp, #36]	; 0x24
 80024e2:	2320      	movs	r3, #32
 80024e4:	f88d 3029 	strb.w	r3, [sp, #41]	; 0x29
 80024e8:	2330      	movs	r3, #48	; 0x30
 80024ea:	f88d 302a 	strb.w	r3, [sp, #42]	; 0x2a
 80024ee:	4623      	mov	r3, r4
 80024f0:	469a      	mov	sl, r3
 80024f2:	f813 2b01 	ldrb.w	r2, [r3], #1
 80024f6:	b10a      	cbz	r2, 80024fc <_svfiprintf_r+0x5c>
 80024f8:	2a25      	cmp	r2, #37	; 0x25
 80024fa:	d1f9      	bne.n	80024f0 <_svfiprintf_r+0x50>
 80024fc:	ebba 0b04 	subs.w	fp, sl, r4
 8002500:	d00b      	beq.n	800251a <_svfiprintf_r+0x7a>
 8002502:	465b      	mov	r3, fp
 8002504:	4622      	mov	r2, r4
 8002506:	4629      	mov	r1, r5
 8002508:	4638      	mov	r0, r7
 800250a:	f7ff ff6f 	bl	80023ec <__ssputs_r>
 800250e:	3001      	adds	r0, #1
 8002510:	f000 80a9 	beq.w	8002666 <_svfiprintf_r+0x1c6>
 8002514:	9a09      	ldr	r2, [sp, #36]	; 0x24
 8002516:	445a      	add	r2, fp
 8002518:	9209      	str	r2, [sp, #36]	; 0x24
 800251a:	f89a 3000 	ldrb.w	r3, [sl]
 800251e:	2b00      	cmp	r3, #0
 8002520:	f000 80a1 	beq.w	8002666 <_svfiprintf_r+0x1c6>
 8002524:	2300      	movs	r3, #0
 8002526:	f04f 32ff 	mov.w	r2, #4294967295
 800252a:	f10a 0a01 	add.w	sl, sl, #1
 800252e:	9304      	str	r3, [sp, #16]
 8002530:	9307      	str	r3, [sp, #28]
 8002532:	f88d 3053 	strb.w	r3, [sp, #83]	; 0x53
 8002536:	931a      	str	r3, [sp, #104]	; 0x68
 8002538:	e9cd 2305 	strd	r2, r3, [sp, #20]
 800253c:	4654      	mov	r4, sl
 800253e:	2205      	movs	r2, #5
 8002540:	4851      	ldr	r0, [pc, #324]	; (8002688 <_svfiprintf_r+0x1e8>)
 8002542:	f814 1b01 	ldrb.w	r1, [r4], #1
 8002546:	f000 fa65 	bl	8002a14 <memchr>
 800254a:	9a04      	ldr	r2, [sp, #16]
 800254c:	b9d8      	cbnz	r0, 8002586 <_svfiprintf_r+0xe6>
 800254e:	06d0      	lsls	r0, r2, #27
 8002550:	bf44      	itt	mi
 8002552:	2320      	movmi	r3, #32
 8002554:	f88d 3053 	strbmi.w	r3, [sp, #83]	; 0x53
 8002558:	0711      	lsls	r1, r2, #28
 800255a:	bf44      	itt	mi
 800255c:	232b      	movmi	r3, #43	; 0x2b
 800255e:	f88d 3053 	strbmi.w	r3, [sp, #83]	; 0x53
 8002562:	f89a 3000 	ldrb.w	r3, [sl]
 8002566:	2b2a      	cmp	r3, #42	; 0x2a
 8002568:	d015      	beq.n	8002596 <_svfiprintf_r+0xf6>
 800256a:	9a07      	ldr	r2, [sp, #28]
 800256c:	4654      	mov	r4, sl
 800256e:	2000      	movs	r0, #0
 8002570:	f04f 0c0a 	mov.w	ip, #10
 8002574:	4621      	mov	r1, r4
 8002576:	f811 3b01 	ldrb.w	r3, [r1], #1
 800257a:	3b30      	subs	r3, #48	; 0x30
 800257c:	2b09      	cmp	r3, #9
 800257e:	d94d      	bls.n	800261c <_svfiprintf_r+0x17c>
 8002580:	b1b0      	cbz	r0, 80025b0 <_svfiprintf_r+0x110>
 8002582:	9207      	str	r2, [sp, #28]
 8002584:	e014      	b.n	80025b0 <_svfiprintf_r+0x110>
 8002586:	eba0 0308 	sub.w	r3, r0, r8
 800258a:	46a2      	mov	sl, r4
 800258c:	fa09 f303 	lsl.w	r3, r9, r3
 8002590:	4313      	orrs	r3, r2
 8002592:	9304      	str	r3, [sp, #16]
 8002594:	e7d2      	b.n	800253c <_svfiprintf_r+0x9c>
 8002596:	9b03      	ldr	r3, [sp, #12]
 8002598:	1d19      	adds	r1, r3, #4
 800259a:	681b      	ldr	r3, [r3, #0]
 800259c:	2b00      	cmp	r3, #0
 800259e:	9103      	str	r1, [sp, #12]
 80025a0:	bfbb      	ittet	lt
 80025a2:	425b      	neglt	r3, r3
 80025a4:	f042 0202 	orrlt.w	r2, r2, #2
 80025a8:	9307      	strge	r3, [sp, #28]
 80025aa:	9307      	strlt	r3, [sp, #28]
 80025ac:	bfb8      	it	lt
 80025ae:	9204      	strlt	r2, [sp, #16]
 80025b0:	7823      	ldrb	r3, [r4, #0]
 80025b2:	2b2e      	cmp	r3, #46	; 0x2e
 80025b4:	d10c      	bne.n	80025d0 <_svfiprintf_r+0x130>
 80025b6:	7863      	ldrb	r3, [r4, #1]
 80025b8:	2b2a      	cmp	r3, #42	; 0x2a
 80025ba:	d134      	bne.n	8002626 <_svfiprintf_r+0x186>
 80025bc:	9b03      	ldr	r3, [sp, #12]
 80025be:	3402      	adds	r4, #2
 80025c0:	1d1a      	adds	r2, r3, #4
 80025c2:	681b      	ldr	r3, [r3, #0]
 80025c4:	2b00      	cmp	r3, #0
 80025c6:	9203      	str	r2, [sp, #12]
 80025c8:	bfb8      	it	lt
 80025ca:	f04f 33ff 	movlt.w	r3, #4294967295
 80025ce:	9305      	str	r3, [sp, #20]
 80025d0:	f8df a0c4 	ldr.w	sl, [pc, #196]	; 8002698 <_svfiprintf_r+0x1f8>
 80025d4:	2203      	movs	r2, #3
 80025d6:	7821      	ldrb	r1, [r4, #0]
 80025d8:	4650      	mov	r0, sl
 80025da:	f000 fa1b 	bl	8002a14 <memchr>
 80025de:	b138      	cbz	r0, 80025f0 <_svfiprintf_r+0x150>
 80025e0:	eba0 000a 	sub.w	r0, r0, sl
 80025e4:	2240      	movs	r2, #64	; 0x40
 80025e6:	9b04      	ldr	r3, [sp, #16]
 80025e8:	3401      	adds	r4, #1
 80025ea:	4082      	lsls	r2, r0
 80025ec:	4313      	orrs	r3, r2
 80025ee:	9304      	str	r3, [sp, #16]
 80025f0:	f814 1b01 	ldrb.w	r1, [r4], #1
 80025f4:	2206      	movs	r2, #6
 80025f6:	4825      	ldr	r0, [pc, #148]	; (800268c <_svfiprintf_r+0x1ec>)
 80025f8:	f88d 1028 	strb.w	r1, [sp, #40]	; 0x28
 80025fc:	f000 fa0a 	bl	8002a14 <memchr>
 8002600:	2800      	cmp	r0, #0
 8002602:	d038      	beq.n	8002676 <_svfiprintf_r+0x1d6>
 8002604:	4b22      	ldr	r3, [pc, #136]	; (8002690 <_svfiprintf_r+0x1f0>)
 8002606:	bb1b      	cbnz	r3, 8002650 <_svfiprintf_r+0x1b0>
 8002608:	9b03      	ldr	r3, [sp, #12]
 800260a:	3307      	adds	r3, #7
 800260c:	f023 0307 	bic.w	r3, r3, #7
 8002610:	3308      	adds	r3, #8
 8002612:	9303      	str	r3, [sp, #12]
 8002614:	9b09      	ldr	r3, [sp, #36]	; 0x24
 8002616:	4433      	add	r3, r6
 8002618:	9309      	str	r3, [sp, #36]	; 0x24
 800261a:	e768      	b.n	80024ee <_svfiprintf_r+0x4e>
 800261c:	fb0c 3202 	mla	r2, ip, r2, r3
 8002620:	460c      	mov	r4, r1
 8002622:	2001      	movs	r0, #1
 8002624:	e7a6      	b.n	8002574 <_svfiprintf_r+0xd4>
 8002626:	2300      	movs	r3, #0
 8002628:	3401      	adds	r4, #1
 800262a:	f04f 0c0a 	mov.w	ip, #10
 800262e:	4619      	mov	r1, r3
 8002630:	9305      	str	r3, [sp, #20]
 8002632:	4620      	mov	r0, r4
 8002634:	f810 2b01 	ldrb.w	r2, [r0], #1
 8002638:	3a30      	subs	r2, #48	; 0x30
 800263a:	2a09      	cmp	r2, #9
 800263c:	d903      	bls.n	8002646 <_svfiprintf_r+0x1a6>
 800263e:	2b00      	cmp	r3, #0
 8002640:	d0c6      	beq.n	80025d0 <_svfiprintf_r+0x130>
 8002642:	9105      	str	r1, [sp, #20]
 8002644:	e7c4      	b.n	80025d0 <_svfiprintf_r+0x130>
 8002646:	fb0c 2101 	mla	r1, ip, r1, r2
 800264a:	4604      	mov	r4, r0
 800264c:	2301      	movs	r3, #1
 800264e:	e7f0      	b.n	8002632 <_svfiprintf_r+0x192>
 8002650:	ab03      	add	r3, sp, #12
 8002652:	462a      	mov	r2, r5
 8002654:	a904      	add	r1, sp, #16
 8002656:	4638      	mov	r0, r7
 8002658:	9300      	str	r3, [sp, #0]
 800265a:	4b0e      	ldr	r3, [pc, #56]	; (8002694 <_svfiprintf_r+0x1f4>)
 800265c:	f3af 8000 	nop.w
 8002660:	1c42      	adds	r2, r0, #1
 8002662:	4606      	mov	r6, r0
 8002664:	d1d6      	bne.n	8002614 <_svfiprintf_r+0x174>
 8002666:	89ab      	ldrh	r3, [r5, #12]
 8002668:	065b      	lsls	r3, r3, #25
 800266a:	f53f af2d 	bmi.w	80024c8 <_svfiprintf_r+0x28>
 800266e:	9809      	ldr	r0, [sp, #36]	; 0x24
 8002670:	b01d      	add	sp, #116	; 0x74
 8002672:	e8bd 8ff0 	ldmia.w	sp!, {r4, r5, r6, r7, r8, r9, sl, fp, pc}
 8002676:	ab03      	add	r3, sp, #12
 8002678:	462a      	mov	r2, r5
 800267a:	a904      	add	r1, sp, #16
 800267c:	4638      	mov	r0, r7
 800267e:	9300      	str	r3, [sp, #0]
 8002680:	4b04      	ldr	r3, [pc, #16]	; (8002694 <_svfiprintf_r+0x1f4>)
 8002682:	f000 f87d 	bl	8002780 <_printf_i>
 8002686:	e7eb      	b.n	8002660 <_svfiprintf_r+0x1c0>
 8002688:	08002b2c 	.word	0x08002b2c
 800268c:	08002b36 	.word	0x08002b36
 8002690:	00000000 	.word	0x00000000
 8002694:	080023ed 	.word	0x080023ed
 8002698:	08002b32 	.word	0x08002b32

0800269c <_printf_common>:
 800269c:	e92d 47f0 	stmdb	sp!, {r4, r5, r6, r7, r8, r9, sl, lr}
 80026a0:	4616      	mov	r6, r2
 80026a2:	4699      	mov	r9, r3
 80026a4:	688a      	ldr	r2, [r1, #8]
 80026a6:	4607      	mov	r7, r0
 80026a8:	690b      	ldr	r3, [r1, #16]
 80026aa:	460c      	mov	r4, r1
 80026ac:	f8dd 8020 	ldr.w	r8, [sp, #32]
 80026b0:	4293      	cmp	r3, r2
 80026b2:	bfb8      	it	lt
 80026b4:	4613      	movlt	r3, r2
 80026b6:	6033      	str	r3, [r6, #0]
 80026b8:	f891 2043 	ldrb.w	r2, [r1, #67]	; 0x43
 80026bc:	b10a      	cbz	r2, 80026c2 <_printf_common+0x26>
 80026be:	3301      	adds	r3, #1
 80026c0:	6033      	str	r3, [r6, #0]
 80026c2:	6823      	ldr	r3, [r4, #0]
 80026c4:	0699      	lsls	r1, r3, #26
 80026c6:	bf42      	ittt	mi
 80026c8:	6833      	ldrmi	r3, [r6, #0]
 80026ca:	3302      	addmi	r3, #2
 80026cc:	6033      	strmi	r3, [r6, #0]
 80026ce:	6825      	ldr	r5, [r4, #0]
 80026d0:	f015 0506 	ands.w	r5, r5, #6
 80026d4:	d106      	bne.n	80026e4 <_printf_common+0x48>
 80026d6:	f104 0a19 	add.w	sl, r4, #25
 80026da:	68e3      	ldr	r3, [r4, #12]
 80026dc:	6832      	ldr	r2, [r6, #0]
 80026de:	1a9b      	subs	r3, r3, r2
 80026e0:	42ab      	cmp	r3, r5
 80026e2:	dc2b      	bgt.n	800273c <_printf_common+0xa0>
 80026e4:	f894 2043 	ldrb.w	r2, [r4, #67]	; 0x43
 80026e8:	1e13      	subs	r3, r2, #0
 80026ea:	6822      	ldr	r2, [r4, #0]
 80026ec:	bf18      	it	ne
 80026ee:	2301      	movne	r3, #1
 80026f0:	0692      	lsls	r2, r2, #26
 80026f2:	d430      	bmi.n	8002756 <_printf_common+0xba>
 80026f4:	f104 0243 	add.w	r2, r4, #67	; 0x43
 80026f8:	4649      	mov	r1, r9
 80026fa:	4638      	mov	r0, r7
 80026fc:	47c0      	blx	r8
 80026fe:	3001      	adds	r0, #1
 8002700:	d023      	beq.n	800274a <_printf_common+0xae>
 8002702:	6823      	ldr	r3, [r4, #0]
 8002704:	341a      	adds	r4, #26
 8002706:	f854 2c0a 	ldr.w	r2, [r4, #-10]
 800270a:	f003 0306 	and.w	r3, r3, #6
 800270e:	2b04      	cmp	r3, #4
 8002710:	bf0a      	itet	eq
 8002712:	f854 5c0e 	ldreq.w	r5, [r4, #-14]
 8002716:	2500      	movne	r5, #0
 8002718:	6833      	ldreq	r3, [r6, #0]
 800271a:	f04f 0600 	mov.w	r6, #0
 800271e:	bf08      	it	eq
 8002720:	1aed      	subeq	r5, r5, r3
 8002722:	f854 3c12 	ldr.w	r3, [r4, #-18]
 8002726:	bf08      	it	eq
 8002728:	ea25 75e5 	biceq.w	r5, r5, r5, asr #31
 800272c:	4293      	cmp	r3, r2
 800272e:	bfc4      	itt	gt
 8002730:	1a9b      	subgt	r3, r3, r2
 8002732:	18ed      	addgt	r5, r5, r3
 8002734:	42b5      	cmp	r5, r6
 8002736:	d11a      	bne.n	800276e <_printf_common+0xd2>
 8002738:	2000      	movs	r0, #0
 800273a:	e008      	b.n	800274e <_printf_common+0xb2>
 800273c:	2301      	movs	r3, #1
 800273e:	4652      	mov	r2, sl
 8002740:	4649      	mov	r1, r9
 8002742:	4638      	mov	r0, r7
 8002744:	47c0      	blx	r8
 8002746:	3001      	adds	r0, #1
 8002748:	d103      	bne.n	8002752 <_printf_common+0xb6>
 800274a:	f04f 30ff 	mov.w	r0, #4294967295
 800274e:	e8bd 87f0 	ldmia.w	sp!, {r4, r5, r6, r7, r8, r9, sl, pc}
 8002752:	3501      	adds	r5, #1
 8002754:	e7c1      	b.n	80026da <_printf_common+0x3e>
 8002756:	18e1      	adds	r1, r4, r3
 8002758:	1c5a      	adds	r2, r3, #1
 800275a:	2030      	movs	r0, #48	; 0x30
 800275c:	3302      	adds	r3, #2
 800275e:	4422      	add	r2, r4
 8002760:	f881 0043 	strb.w	r0, [r1, #67]	; 0x43
 8002764:	f894 1045 	ldrb.w	r1, [r4, #69]	; 0x45
 8002768:	f882 1043 	strb.w	r1, [r2, #67]	; 0x43
 800276c:	e7c2      	b.n	80026f4 <_printf_common+0x58>
 800276e:	2301      	movs	r3, #1
 8002770:	4622      	mov	r2, r4
 8002772:	4649      	mov	r1, r9
 8002774:	4638      	mov	r0, r7
 8002776:	47c0      	blx	r8
 8002778:	3001      	adds	r0, #1
 800277a:	d0e6      	beq.n	800274a <_printf_common+0xae>
 800277c:	3601      	adds	r6, #1
 800277e:	e7d9      	b.n	8002734 <_printf_common+0x98>

08002780 <_printf_i>:
 8002780:	e92d 47ff 	stmdb	sp!, {r0, r1, r2, r3, r4, r5, r6, r7, r8, r9, sl, lr}
 8002784:	7e0f      	ldrb	r7, [r1, #24]
 8002786:	4691      	mov	r9, r2
 8002788:	4680      	mov	r8, r0
 800278a:	460c      	mov	r4, r1
 800278c:	2f78      	cmp	r7, #120	; 0x78
 800278e:	469a      	mov	sl, r3
 8002790:	9d0c      	ldr	r5, [sp, #48]	; 0x30
 8002792:	f101 0243 	add.w	r2, r1, #67	; 0x43
 8002796:	d807      	bhi.n	80027a8 <_printf_i+0x28>
 8002798:	2f62      	cmp	r7, #98	; 0x62
 800279a:	d80a      	bhi.n	80027b2 <_printf_i+0x32>
 800279c:	2f00      	cmp	r7, #0
 800279e:	f000 80d3 	beq.w	8002948 <_printf_i+0x1c8>
 80027a2:	2f58      	cmp	r7, #88	; 0x58
 80027a4:	f000 80bf 	beq.w	8002926 <_printf_i+0x1a6>
 80027a8:	f104 0542 	add.w	r5, r4, #66	; 0x42
 80027ac:	f884 7042 	strb.w	r7, [r4, #66]	; 0x42
 80027b0:	e03a      	b.n	8002828 <_printf_i+0xa8>
 80027b2:	f1a7 0363 	sub.w	r3, r7, #99	; 0x63
 80027b6:	2b15      	cmp	r3, #21
 80027b8:	d8f6      	bhi.n	80027a8 <_printf_i+0x28>
 80027ba:	a101      	add	r1, pc, #4	; (adr r1, 80027c0 <_printf_i+0x40>)
 80027bc:	f851 f023 	ldr.w	pc, [r1, r3, lsl #2]
 80027c0:	08002819 	.word	0x08002819
 80027c4:	0800282d 	.word	0x0800282d
 80027c8:	080027a9 	.word	0x080027a9
 80027cc:	080027a9 	.word	0x080027a9
 80027d0:	080027a9 	.word	0x080027a9
 80027d4:	080027a9 	.word	0x080027a9
 80027d8:	0800282d 	.word	0x0800282d
 80027dc:	080027a9 	.word	0x080027a9
 80027e0:	080027a9 	.word	0x080027a9
 80027e4:	080027a9 	.word	0x080027a9
 80027e8:	080027a9 	.word	0x080027a9
 80027ec:	0800292f 	.word	0x0800292f
 80027f0:	08002859 	.word	0x08002859
 80027f4:	080028eb 	.word	0x080028eb
 80027f8:	080027a9 	.word	0x080027a9
 80027fc:	080027a9 	.word	0x080027a9
 8002800:	08002951 	.word	0x08002951
 8002804:	080027a9 	.word	0x080027a9
 8002808:	08002859 	.word	0x08002859
 800280c:	080027a9 	.word	0x080027a9
 8002810:	080027a9 	.word	0x080027a9
 8002814:	080028f3 	.word	0x080028f3
 8002818:	682b      	ldr	r3, [r5, #0]
 800281a:	1d1a      	adds	r2, r3, #4
 800281c:	681b      	ldr	r3, [r3, #0]
 800281e:	602a      	str	r2, [r5, #0]
 8002820:	f104 0542 	add.w	r5, r4, #66	; 0x42
 8002824:	f884 3042 	strb.w	r3, [r4, #66]	; 0x42
 8002828:	2301      	movs	r3, #1
 800282a:	e09e      	b.n	800296a <_printf_i+0x1ea>
 800282c:	6820      	ldr	r0, [r4, #0]
 800282e:	682b      	ldr	r3, [r5, #0]
 8002830:	0607      	lsls	r7, r0, #24
 8002832:	f103 0104 	add.w	r1, r3, #4
 8002836:	6029      	str	r1, [r5, #0]
 8002838:	d501      	bpl.n	800283e <_printf_i+0xbe>
 800283a:	681e      	ldr	r6, [r3, #0]
 800283c:	e003      	b.n	8002846 <_printf_i+0xc6>
 800283e:	0646      	lsls	r6, r0, #25
 8002840:	d5fb      	bpl.n	800283a <_printf_i+0xba>
 8002842:	f9b3 6000 	ldrsh.w	r6, [r3]
 8002846:	2e00      	cmp	r6, #0
 8002848:	da03      	bge.n	8002852 <_printf_i+0xd2>
 800284a:	232d      	movs	r3, #45	; 0x2d
 800284c:	4276      	negs	r6, r6
 800284e:	f884 3043 	strb.w	r3, [r4, #67]	; 0x43
 8002852:	4859      	ldr	r0, [pc, #356]	; (80029b8 <_printf_i+0x238>)
 8002854:	230a      	movs	r3, #10
 8002856:	e012      	b.n	800287e <_printf_i+0xfe>
 8002858:	682b      	ldr	r3, [r5, #0]
 800285a:	6820      	ldr	r0, [r4, #0]
 800285c:	1d19      	adds	r1, r3, #4
 800285e:	6029      	str	r1, [r5, #0]
 8002860:	0605      	lsls	r5, r0, #24
 8002862:	d501      	bpl.n	8002868 <_printf_i+0xe8>
 8002864:	681e      	ldr	r6, [r3, #0]
 8002866:	e002      	b.n	800286e <_printf_i+0xee>
 8002868:	0641      	lsls	r1, r0, #25
 800286a:	d5fb      	bpl.n	8002864 <_printf_i+0xe4>
 800286c:	881e      	ldrh	r6, [r3, #0]
 800286e:	2f6f      	cmp	r7, #111	; 0x6f
 8002870:	4851      	ldr	r0, [pc, #324]	; (80029b8 <_printf_i+0x238>)
 8002872:	bf0c      	ite	eq
 8002874:	2308      	moveq	r3, #8
 8002876:	230a      	movne	r3, #10
 8002878:	2100      	movs	r1, #0
 800287a:	f884 1043 	strb.w	r1, [r4, #67]	; 0x43
 800287e:	6865      	ldr	r5, [r4, #4]
 8002880:	2d00      	cmp	r5, #0
 8002882:	60a5      	str	r5, [r4, #8]
 8002884:	bfa2      	ittt	ge
 8002886:	6821      	ldrge	r1, [r4, #0]
 8002888:	f021 0104 	bicge.w	r1, r1, #4
 800288c:	6021      	strge	r1, [r4, #0]
 800288e:	b90e      	cbnz	r6, 8002894 <_printf_i+0x114>
 8002890:	2d00      	cmp	r5, #0
 8002892:	d04a      	beq.n	800292a <_printf_i+0x1aa>
 8002894:	4615      	mov	r5, r2
 8002896:	fbb6 f1f3 	udiv	r1, r6, r3
 800289a:	fb03 6711 	mls	r7, r3, r1, r6
 800289e:	5dc7      	ldrb	r7, [r0, r7]
 80028a0:	f805 7d01 	strb.w	r7, [r5, #-1]!
 80028a4:	4637      	mov	r7, r6
 80028a6:	460e      	mov	r6, r1
 80028a8:	42bb      	cmp	r3, r7
 80028aa:	d9f4      	bls.n	8002896 <_printf_i+0x116>
 80028ac:	2b08      	cmp	r3, #8
 80028ae:	d10b      	bne.n	80028c8 <_printf_i+0x148>
 80028b0:	6823      	ldr	r3, [r4, #0]
 80028b2:	07de      	lsls	r6, r3, #31
 80028b4:	d508      	bpl.n	80028c8 <_printf_i+0x148>
 80028b6:	6923      	ldr	r3, [r4, #16]
 80028b8:	6861      	ldr	r1, [r4, #4]
 80028ba:	4299      	cmp	r1, r3
 80028bc:	bfde      	ittt	le
 80028be:	2330      	movle	r3, #48	; 0x30
 80028c0:	f805 3c01 	strble.w	r3, [r5, #-1]
 80028c4:	f105 35ff 	addle.w	r5, r5, #4294967295
 80028c8:	1b52      	subs	r2, r2, r5
 80028ca:	6122      	str	r2, [r4, #16]
 80028cc:	464b      	mov	r3, r9
 80028ce:	aa03      	add	r2, sp, #12
 80028d0:	4621      	mov	r1, r4
 80028d2:	4640      	mov	r0, r8
 80028d4:	f8cd a000 	str.w	sl, [sp]
 80028d8:	f7ff fee0 	bl	800269c <_printf_common>
 80028dc:	3001      	adds	r0, #1
 80028de:	d149      	bne.n	8002974 <_printf_i+0x1f4>
 80028e0:	f04f 30ff 	mov.w	r0, #4294967295
 80028e4:	b004      	add	sp, #16
 80028e6:	e8bd 87f0 	ldmia.w	sp!, {r4, r5, r6, r7, r8, r9, sl, pc}
 80028ea:	6823      	ldr	r3, [r4, #0]
 80028ec:	f043 0320 	orr.w	r3, r3, #32
 80028f0:	6023      	str	r3, [r4, #0]
 80028f2:	2778      	movs	r7, #120	; 0x78
 80028f4:	4831      	ldr	r0, [pc, #196]	; (80029bc <_printf_i+0x23c>)
 80028f6:	6823      	ldr	r3, [r4, #0]
 80028f8:	f884 7045 	strb.w	r7, [r4, #69]	; 0x45
 80028fc:	061f      	lsls	r7, r3, #24
 80028fe:	6829      	ldr	r1, [r5, #0]
 8002900:	f851 6b04 	ldr.w	r6, [r1], #4
 8002904:	d402      	bmi.n	800290c <_printf_i+0x18c>
 8002906:	065f      	lsls	r7, r3, #25
 8002908:	bf48      	it	mi
 800290a:	b2b6      	uxthmi	r6, r6
 800290c:	07df      	lsls	r7, r3, #31
 800290e:	6029      	str	r1, [r5, #0]
 8002910:	bf44      	itt	mi
 8002912:	f043 0320 	orrmi.w	r3, r3, #32
 8002916:	6023      	strmi	r3, [r4, #0]
 8002918:	b91e      	cbnz	r6, 8002922 <_printf_i+0x1a2>
 800291a:	6823      	ldr	r3, [r4, #0]
 800291c:	f023 0320 	bic.w	r3, r3, #32
 8002920:	6023      	str	r3, [r4, #0]
 8002922:	2310      	movs	r3, #16
 8002924:	e7a8      	b.n	8002878 <_printf_i+0xf8>
 8002926:	4824      	ldr	r0, [pc, #144]	; (80029b8 <_printf_i+0x238>)
 8002928:	e7e5      	b.n	80028f6 <_printf_i+0x176>
 800292a:	4615      	mov	r5, r2
 800292c:	e7be      	b.n	80028ac <_printf_i+0x12c>
 800292e:	682b      	ldr	r3, [r5, #0]
 8002930:	6826      	ldr	r6, [r4, #0]
 8002932:	1d18      	adds	r0, r3, #4
 8002934:	6961      	ldr	r1, [r4, #20]
 8002936:	6028      	str	r0, [r5, #0]
 8002938:	0635      	lsls	r5, r6, #24
 800293a:	681b      	ldr	r3, [r3, #0]
 800293c:	d501      	bpl.n	8002942 <_printf_i+0x1c2>
 800293e:	6019      	str	r1, [r3, #0]
 8002940:	e002      	b.n	8002948 <_printf_i+0x1c8>
 8002942:	0670      	lsls	r0, r6, #25
 8002944:	d5fb      	bpl.n	800293e <_printf_i+0x1be>
 8002946:	8019      	strh	r1, [r3, #0]
 8002948:	2300      	movs	r3, #0
 800294a:	4615      	mov	r5, r2
 800294c:	6123      	str	r3, [r4, #16]
 800294e:	e7bd      	b.n	80028cc <_printf_i+0x14c>
 8002950:	682b      	ldr	r3, [r5, #0]
 8002952:	2100      	movs	r1, #0
 8002954:	1d1a      	adds	r2, r3, #4
 8002956:	602a      	str	r2, [r5, #0]
 8002958:	681d      	ldr	r5, [r3, #0]
 800295a:	6862      	ldr	r2, [r4, #4]
 800295c:	4628      	mov	r0, r5
 800295e:	f000 f859 	bl	8002a14 <memchr>
 8002962:	b108      	cbz	r0, 8002968 <_printf_i+0x1e8>
 8002964:	1b40      	subs	r0, r0, r5
 8002966:	6060      	str	r0, [r4, #4]
 8002968:	6863      	ldr	r3, [r4, #4]
 800296a:	6123      	str	r3, [r4, #16]
 800296c:	2300      	movs	r3, #0
 800296e:	f884 3043 	strb.w	r3, [r4, #67]	; 0x43
 8002972:	e7ab      	b.n	80028cc <_printf_i+0x14c>
 8002974:	6923      	ldr	r3, [r4, #16]
 8002976:	462a      	mov	r2, r5
 8002978:	4649      	mov	r1, r9
 800297a:	4640      	mov	r0, r8
 800297c:	47d0      	blx	sl
 800297e:	3001      	adds	r0, #1
 8002980:	d0ae      	beq.n	80028e0 <_printf_i+0x160>
 8002982:	6823      	ldr	r3, [r4, #0]
 8002984:	079b      	lsls	r3, r3, #30
 8002986:	d413      	bmi.n	80029b0 <_printf_i+0x230>
 8002988:	68e0      	ldr	r0, [r4, #12]
 800298a:	9b03      	ldr	r3, [sp, #12]
 800298c:	4298      	cmp	r0, r3
 800298e:	bfb8      	it	lt
 8002990:	4618      	movlt	r0, r3
 8002992:	e7a7      	b.n	80028e4 <_printf_i+0x164>
 8002994:	2301      	movs	r3, #1
 8002996:	4632      	mov	r2, r6
 8002998:	4649      	mov	r1, r9
 800299a:	4640      	mov	r0, r8
 800299c:	47d0      	blx	sl
 800299e:	3001      	adds	r0, #1
 80029a0:	d09e      	beq.n	80028e0 <_printf_i+0x160>
 80029a2:	3501      	adds	r5, #1
 80029a4:	68e3      	ldr	r3, [r4, #12]
 80029a6:	9903      	ldr	r1, [sp, #12]
 80029a8:	1a5b      	subs	r3, r3, r1
 80029aa:	42ab      	cmp	r3, r5
 80029ac:	dcf2      	bgt.n	8002994 <_printf_i+0x214>
 80029ae:	e7eb      	b.n	8002988 <_printf_i+0x208>
 80029b0:	2500      	movs	r5, #0
 80029b2:	f104 0619 	add.w	r6, r4, #25
 80029b6:	e7f5      	b.n	80029a4 <_printf_i+0x224>
 80029b8:	08002b3d 	.word	0x08002b3d
 80029bc:	08002b4e 	.word	0x08002b4e

080029c0 <memmove>:
 80029c0:	4288      	cmp	r0, r1
 80029c2:	b510      	push	{r4, lr}
 80029c4:	eb01 0402 	add.w	r4, r1, r2
 80029c8:	d902      	bls.n	80029d0 <memmove+0x10>
 80029ca:	4284      	cmp	r4, r0
 80029cc:	4623      	mov	r3, r4
 80029ce:	d807      	bhi.n	80029e0 <memmove+0x20>
 80029d0:	1e43      	subs	r3, r0, #1
 80029d2:	42a1      	cmp	r1, r4
 80029d4:	d008      	beq.n	80029e8 <memmove+0x28>
 80029d6:	f811 2b01 	ldrb.w	r2, [r1], #1
 80029da:	f803 2f01 	strb.w	r2, [r3, #1]!
 80029de:	e7f8      	b.n	80029d2 <memmove+0x12>
 80029e0:	4402      	add	r2, r0
 80029e2:	4601      	mov	r1, r0
 80029e4:	428a      	cmp	r2, r1
 80029e6:	d100      	bne.n	80029ea <memmove+0x2a>
 80029e8:	bd10      	pop	{r4, pc}
 80029ea:	f813 4d01 	ldrb.w	r4, [r3, #-1]!
 80029ee:	f802 4d01 	strb.w	r4, [r2, #-1]!
 80029f2:	e7f7      	b.n	80029e4 <memmove+0x24>

080029f4 <_sbrk_r>:
 80029f4:	b538      	push	{r3, r4, r5, lr}
 80029f6:	2300      	movs	r3, #0
 80029f8:	4d05      	ldr	r5, [pc, #20]	; (8002a10 <_sbrk_r+0x1c>)
 80029fa:	4604      	mov	r4, r0
 80029fc:	4608      	mov	r0, r1
 80029fe:	602b      	str	r3, [r5, #0]
 8002a00:	f7ff fabc 	bl	8001f7c <_sbrk>
 8002a04:	1c43      	adds	r3, r0, #1
 8002a06:	d102      	bne.n	8002a0e <_sbrk_r+0x1a>
 8002a08:	682b      	ldr	r3, [r5, #0]
 8002a0a:	b103      	cbz	r3, 8002a0e <_sbrk_r+0x1a>
 8002a0c:	6023      	str	r3, [r4, #0]
 8002a0e:	bd38      	pop	{r3, r4, r5, pc}
 8002a10:	200001b0 	.word	0x200001b0

08002a14 <memchr>:
 8002a14:	b2c9      	uxtb	r1, r1
 8002a16:	4402      	add	r2, r0
 8002a18:	b510      	push	{r4, lr}
 8002a1a:	4290      	cmp	r0, r2
 8002a1c:	4603      	mov	r3, r0
 8002a1e:	d101      	bne.n	8002a24 <memchr+0x10>
 8002a20:	2300      	movs	r3, #0
 8002a22:	e003      	b.n	8002a2c <memchr+0x18>
 8002a24:	781c      	ldrb	r4, [r3, #0]
 8002a26:	3001      	adds	r0, #1
 8002a28:	428c      	cmp	r4, r1
 8002a2a:	d1f6      	bne.n	8002a1a <memchr+0x6>
 8002a2c:	4618      	mov	r0, r3
 8002a2e:	bd10      	pop	{r4, pc}

08002a30 <memcpy>:
 8002a30:	440a      	add	r2, r1
 8002a32:	1e43      	subs	r3, r0, #1
 8002a34:	4291      	cmp	r1, r2
 8002a36:	d100      	bne.n	8002a3a <memcpy+0xa>
 8002a38:	4770      	bx	lr
 8002a3a:	b510      	push	{r4, lr}
 8002a3c:	f811 4b01 	ldrb.w	r4, [r1], #1
 8002a40:	4291      	cmp	r1, r2
 8002a42:	f803 4f01 	strb.w	r4, [r3, #1]!
 8002a46:	d1f9      	bne.n	8002a3c <memcpy+0xc>
 8002a48:	bd10      	pop	{r4, pc}

08002a4a <_realloc_r>:
 8002a4a:	e92d 41f0 	stmdb	sp!, {r4, r5, r6, r7, r8, lr}
 8002a4e:	4680      	mov	r8, r0
 8002a50:	4614      	mov	r4, r2
 8002a52:	460e      	mov	r6, r1
 8002a54:	b921      	cbnz	r1, 8002a60 <_realloc_r+0x16>
 8002a56:	4611      	mov	r1, r2
 8002a58:	e8bd 41f0 	ldmia.w	sp!, {r4, r5, r6, r7, r8, lr}
 8002a5c:	f7ff bc3a 	b.w	80022d4 <_malloc_r>
 8002a60:	b92a      	cbnz	r2, 8002a6e <_realloc_r+0x24>
 8002a62:	4625      	mov	r5, r4
 8002a64:	f7ff fbca 	bl	80021fc <_free_r>
 8002a68:	4628      	mov	r0, r5
 8002a6a:	e8bd 81f0 	ldmia.w	sp!, {r4, r5, r6, r7, r8, pc}
 8002a6e:	f000 f81b 	bl	8002aa8 <_malloc_usable_size_r>
 8002a72:	4284      	cmp	r4, r0
 8002a74:	4607      	mov	r7, r0
 8002a76:	d802      	bhi.n	8002a7e <_realloc_r+0x34>
 8002a78:	ebb4 0f50 	cmp.w	r4, r0, lsr #1
 8002a7c:	d812      	bhi.n	8002aa4 <_realloc_r+0x5a>
 8002a7e:	4621      	mov	r1, r4
 8002a80:	4640      	mov	r0, r8
 8002a82:	f7ff fc27 	bl	80022d4 <_malloc_r>
 8002a86:	4605      	mov	r5, r0
 8002a88:	2800      	cmp	r0, #0
 8002a8a:	d0ed      	beq.n	8002a68 <_realloc_r+0x1e>
 8002a8c:	42bc      	cmp	r4, r7
 8002a8e:	4622      	mov	r2, r4
 8002a90:	4631      	mov	r1, r6
 8002a92:	bf28      	it	cs
 8002a94:	463a      	movcs	r2, r7
 8002a96:	f7ff ffcb 	bl	8002a30 <memcpy>
 8002a9a:	4631      	mov	r1, r6
 8002a9c:	4640      	mov	r0, r8
 8002a9e:	f7ff fbad 	bl	80021fc <_free_r>
 8002aa2:	e7e1      	b.n	8002a68 <_realloc_r+0x1e>
 8002aa4:	4635      	mov	r5, r6
 8002aa6:	e7df      	b.n	8002a68 <_realloc_r+0x1e>

08002aa8 <_malloc_usable_size_r>:
 8002aa8:	f851 3c04 	ldr.w	r3, [r1, #-4]
 8002aac:	1f18      	subs	r0, r3, #4
 8002aae:	2b00      	cmp	r3, #0
 8002ab0:	bfbc      	itt	lt
 8002ab2:	580b      	ldrlt	r3, [r1, r0]
 8002ab4:	18c0      	addlt	r0, r0, r3
 8002ab6:	4770      	bx	lr

08002ab8 <_init>:
 8002ab8:	b5f8      	push	{r3, r4, r5, r6, r7, lr}
 8002aba:	bf00      	nop
 8002abc:	bcf8      	pop	{r3, r4, r5, r6, r7}
 8002abe:	bc08      	pop	{r3}
 8002ac0:	469e      	mov	lr, r3
 8002ac2:	4770      	bx	lr

08002ac4 <_fini>:
 8002ac4:	b5f8      	push	{r3, r4, r5, r6, r7, lr}
 8002ac6:	bf00      	nop
 8002ac8:	bcf8      	pop	{r3, r4, r5, r6, r7}
 8002aca:	bc08      	pop	{r3}
 8002acc:	469e      	mov	lr, r3
 8002ace:	4770      	bx	lr
